(dp0
S'cookies'
p1
(dp2
S'webwx_data_ticket'
p3
S'gSf6QpSNuTj22kwm1lUr/HKp'
p4
sS'wxuin'
p5
S'2969247815'
p6
sS'webwxuvid'
p7
S'6fbc469bd52e43c7b44613a056271db06bc9bf7ae8b7726080751acb1b568f6633b661195cb88af26d55eb920bf12d83'
p8
sS'webwx_auth_ticket'
p9
S'CIsBEMW7gdIKGoABH9cybzoJ+Rdg3yDKM8aFvnV27Vi2eG/pftR0g0rIc6Bt+B/jV2w2Lzfi8PfvhLgg2O9GAKFsFkU/pqhb84I8kPANFcs3hiVP/6slsTxvCWtxB/ZOohwPiSqZNXymZmifDFct84pFg+U4uoOxN/ygj0gUDX4TeOFVzmxfEvXD5Rs='
p10
sS'wxloadtime'
p11
S'1525924811'
p12
sS'wxsid'
p13
S'MvwilFM0Rh+RrwB5'
p14
sS'mm_lang'
p15
S'zh_CN'
p16
ssS'version'
p17
S'1.3.10'
p18
sS'storage'
p19
(dp20
S'userName'
p21
V@3410c695ab6c16fa8166caabd2bcd9175a1a02556368e8e4cf522dac5276a723
p22
sS'lastInputUserName'
p23
NsS'memberList'
p24
ccopy_reg
_reconstructor
p25
(citchat.storage.templates
ContactList
p26
c__builtin__
list
p27
(lp28
g25
(citchat.storage.templates
User
p29
c__builtin__
dict
p30
(dp31
S'UserName'
p32
g22
sS'City'
p33
S''
p34
sS'DisplayName'
p35
g34
sS'UniFriend'
p36
I0
sS'OwnerUin'
p37
I0
sS'MemberList'
p38
g25
(g26
g27
(lp39
tp40
Rp41
I1
bsS'PYQuanPin'
p42
V
p43
sS'RemarkPYInitial'
p44
g43
sS'Uin'
p45
L2969247815L
sS'AppAccountFlag'
p46
I0
sS'VerifyFlag'
p47
I0
sS'Province'
p48
g34
sS'KeyWord'
p49
g34
sS'RemarkName'
p50
g43
sS'PYInitial'
p51
g43
sS'ChatRoomId'
p52
I0
sS'HideInputBarFlag'
p53
I0
sVHeadImgFlag
p54
I1
sS'EncryChatRoomId'
p55
g34
sS'AttrStatus'
p56
I0
sS'SnsFlag'
p57
I17
sS'MemberCount'
p58
I0
sVWebWxPluginSwitch
p59
I0
sS'Alias'
p60
g34
sS'Signature'
p61
V\u524d\u7a0b\uff0c\u5c31\u662f\u4e2a\u4e00\u6587\u4e0d\u503c\u7684\u6625\u68a6
p62
sS'ContactFlag'
p63
I0
sS'NickName'
p64
V\u5218\u52c7
p65
sS'RemarkPYQuanPin'
p66
g43
sS'HeadImgUrl'
p67
V/cgi-bin/mmwebwx-bin/webwxgeticon?seq=739925920&username=@3410c695ab6c16fa8166caabd2bcd9175a1a02556368e8e4cf522dac5276a723&skey=@crypt_b93ef9c0_3d36781bdd471e93df89b74ee29383b1
p68
sS'Sex'
p69
I1
sS'StarFriend'
p70
I0
sS'Statues'
p71
I0
stp72
Rp73
I1
bag25
(g29
g30
(dp74
VUserName
p75
V@be60c1d28d75cfa13bf43c7483c4748554a23f50424e1051ffa7f93bac96fa1f
p76
sVCity
p77
V\u6b66\u6c49
p78
sVSnsFlag
p79
I17
sVDisplayName
p80
g43
sVUniFriend
p81
I0
sVMemberCount
p82
I0
sVOwnerUin
p83
I0
sVMemberList
p84
g41
sVAlias
p85
g43
sVPYQuanPin
p86
Vzhangyang
p87
sVSignature
p88
V\u9752\u6625\u4e00\u53bb\u4e0d\u590d\u8fd4
p89
sVRemarkPYInitial
p90
VZY
p91
sVContactFlag
p92
I3
sVUin
p93
I0
sVNickName
p94
V\u5f20\u6d0b
p95
sVAppAccountFlag
p96
I0
sVVerifyFlag
p97
I0
sVRemarkPYQuanPin
p98
Vzhangyang
p99
sVHeadImgUrl
p100
V/cgi-bin/mmwebwx-bin/webwxgeticon?seq=665624292&username=@be60c1d28d75cfa13bf43c7483c4748554a23f50424e1051ffa7f93bac96fa1f&skey=@crypt_b93ef9c0_3d36781bdd471e93df89b74ee29383b1
p101
sVKeyWord
p102
g43
sVProvince
p103
V\u6e56\u5317
p104
sVPYInitial
p105
VZY
p106
sVRemarkName
p107
V\u5f20\u6d0b
p108
sVIsOwner
p109
I0
sVSex
p110
I1
sVStarFriend
p111
I0
sVHideInputBarFlag
p112
I0
sVChatRoomId
p113
I0
sVEncryChatRoomId
p114
g43
sVAttrStatus
p115
I197031
sVStatues
p116
I0
stp117
Rp118
I1
bag25
(g29
g30
(dp119
VUserName
p120
V@50dfec75f8e9b6187ee97eec3deab5eba48f3875c15fef73c568c1e7fe7cdb01
p121
sVCity
p122
g43
sVSnsFlag
p123
I17
sVDisplayName
p124
g43
sVUniFriend
p125
I0
sVMemberCount
p126
I0
sVOwnerUin
p127
I0
sVMemberList
p128
g41
sVAlias
p129
g43
sVPYQuanPin
p130
Vsuishuiliu
p131
sVSignature
p132
VLove at the first sight \u2026\u2026
p133
sVRemarkPYInitial
p134
VXK
p135
sVContactFlag
p136
I3
sVUin
p137
I0
sVNickName
p138
V\u968f\u6c34\u6d41
p139
sVAppAccountFlag
p140
I0
sVVerifyFlag
p141
I0
sVRemarkPYQuanPin
p142
Vxiaokang
p143
sVHeadImgUrl
p144
V/cgi-bin/mmwebwx-bin/webwxgeticon?seq=634890810&username=@50dfec75f8e9b6187ee97eec3deab5eba48f3875c15fef73c568c1e7fe7cdb01&skey=@crypt_b93ef9c0_3d36781bdd471e93df89b74ee29383b1
p145
sVKeyWord
p146
g43
sVProvince
p147
g43
sVPYInitial
p148
VSSL
p149
sVRemarkName
p150
V\u5c0f\u4ea2
p151
sVIsOwner
p152
I0
sVSex
p153
I1
sVStarFriend
p154
I0
sVHideInputBarFlag
p155
I0
sVChatRoomId
p156
I0
sVEncryChatRoomId
p157
g43
sVAttrStatus
p158
I102437
sVStatues
p159
I0
stp160
Rp161
I1
bag25
(g29
g30
(dp162
VUserName
p163
V@0f0f62295b390671c8fb9bcb3762c52d
p164
sVCity
p165
g43
sVSnsFlag
p166
I17
sVDisplayName
p167
g43
sVUniFriend
p168
I0
sVMemberCount
p169
I0
sVOwnerUin
p170
I0
sVMemberList
p171
g41
sVAlias
p172
g43
sVPYQuanPin
p173
Vwangshilei
p174
sVSignature
p175
g43
sVRemarkPYInitial
p176
g43
sVContactFlag
p177
I8195
sVUin
p178
I0
sVNickName
p179
V\u738b\u8a69\u78ca
p180
sVAppAccountFlag
p181
I0
sVVerifyFlag
p182
I0
sVRemarkPYQuanPin
p183
g43
sVHeadImgUrl
p184
V/cgi-bin/mmwebwx-bin/webwxgeticon?seq=631434022&username=@0f0f62295b390671c8fb9bcb3762c52d&skey=@crypt_b93ef9c0_3d36781bdd471e93df89b74ee29383b1
p185
sVKeyWord
p186
Vwan
p187
sVProvince
p188
VTaipei
p189
sVPYInitial
p190
VWSL
p191
sVRemarkName
p192
g43
sVIsOwner
p193
I0
sVSex
p194
I1
sVStarFriend
p195
I0
sVHideInputBarFlag
p196
I0
sVChatRoomId
p197
I0
sVEncryChatRoomId
p198
g43
sVAttrStatus
p199
I33657023
sVStatues
p200
I0
stp201
Rp202
I1
bag25
(g29
g30
(dp203
VUserName
p204
V@491df75825fdafb1061c9cd711dabeb38428871d026e13f9d6acf26108ccea1d
p205
sVCity
p206
V\u9102\u5c14\u591a\u65af
p207
sVSnsFlag
p208
I1
sVDisplayName
p209
g43
sVUniFriend
p210
I0
sVMemberCount
p211
I0
sVOwnerUin
p212
I0
sVMemberList
p213
g41
sVAlias
p214
g43
sVPYQuanPin
p215
Vjidai
p216
sVSignature
p217
V\u6211
p218
sVRemarkPYInitial
p219
VJD
p220
sVContactFlag
p221
I3
sVUin
p222
I0
sVNickName
p223
V\u671f\u5f85
p224
sVAppAccountFlag
p225
I0
sVVerifyFlag
p226
I0
sVRemarkPYQuanPin
p227
Vjidai
p228
sVHeadImgUrl
p229
V/cgi-bin/mmwebwx-bin/webwxgeticon?seq=648236532&username=@491df75825fdafb1061c9cd711dabeb38428871d026e13f9d6acf26108ccea1d&skey=@crypt_b93ef9c0_3d36781bdd471e93df89b74ee29383b1
p230
sVKeyWord
p231
g43
sVProvince
p232
V\u5185\u8499\u53e4
p233
sVPYInitial
p234
VJD
p235
sVRemarkName
p236
V\u671f\u5f85
p237
sVIsOwner
p238
I0
sVSex
p239
I1
sVStarFriend
p240
I0
sVHideInputBarFlag
p241
I0
sVChatRoomId
p242
I0
sVEncryChatRoomId
p243
g43
sVAttrStatus
p244
I102437
sVStatues
p245
I0
stp246
Rp247
I1
bag25
(g29
g30
(dp248
VUserName
p249
V@cf87826755af8bc5793eb8c902bf66c51444f8d3a6b3d9a8c420d63870d18687
p250
sVCity
p251
V\u5ffb\u5dde
p252
sVSnsFlag
p253
I17
sVDisplayName
p254
g43
sVUniFriend
p255
I0
sVMemberCount
p256
I0
sVOwnerUin
p257
I0
sVMemberList
p258
g41
sVAlias
p259
g43
sVPYQuanPin
p260
g43
sVSignature
p261
V\u66f2\u7ec8\u672a\u5fc5\u4eba\u6563\uff0c\u6709\u60c5\u81ea\u4f1a\u91cd\u9022
p262
sVRemarkPYInitial
p263
VZJ
p264
sVContactFlag
p265
I1
sVUin
p266
I0
sVNickName
p267
V\u3000\u3000
p268
sVAppAccountFlag
p269
I0
sVVerifyFlag
p270
I0
sVRemarkPYQuanPin
p271
Vzhangjun
p272
sVHeadImgUrl
p273
V/cgi-bin/mmwebwx-bin/webwxgeticon?seq=649999616&username=@cf87826755af8bc5793eb8c902bf66c51444f8d3a6b3d9a8c420d63870d18687&skey=@crypt_b93ef9c0_3d36781bdd471e93df89b74ee29383b1
p274
sVKeyWord
p275
Vzha
p276
sVProvince
p277
V\u5c71\u897f
p278
sVPYInitial
p279
g43
sVRemarkName
p280
V\u5f20\u519b
p281
sVIsOwner
p282
I0
sVSex
p283
I1
sVStarFriend
p284
I0
sVHideInputBarFlag
p285
I0
sVChatRoomId
p286
I0
sVEncryChatRoomId
p287
g43
sVAttrStatus
p288
I102631
sVStatues
p289
I0
stp290
Rp291
I1
bag25
(g29
g30
(dp292
VUserName
p293
V@585b78eadc3e3bb60d95264d202da81dd554cb0d093760b3b683052f8a81f576
p294
sVCity
p295
V\u6b66\u6c49
p296
sVSnsFlag
p297
I17
sVDisplayName
p298
g43
sVUniFriend
p299
I0
sVMemberCount
p300
I0
sVOwnerUin
p301
I0
sVMemberList
p302
g41
sVAlias
p303
g43
sVPYQuanPin
p304
VMexwell
p305
sVSignature
p306
g43
sVRemarkPYInitial
p307
g43
sVContactFlag
p308
I65793
sVUin
p309
I0
sVNickName
p310
VMexwell
p311
sVAppAccountFlag
p312
I0
sVVerifyFlag
p313
I0
sVRemarkPYQuanPin
p314
g43
sVHeadImgUrl
p315
V/cgi-bin/mmwebwx-bin/webwxgeticon?seq=638160102&username=@585b78eadc3e3bb60d95264d202da81dd554cb0d093760b3b683052f8a81f576&skey=@crypt_b93ef9c0_3d36781bdd471e93df89b74ee29383b1
p316
sVKeyWord
p317
g43
sVProvince
p318
V\u6e56\u5317
p319
sVPYInitial
p320
VMEXWELL
p321
sVRemarkName
p322
g43
sVIsOwner
p323
I0
sVSex
p324
I1
sVStarFriend
p325
I0
sVHideInputBarFlag
p326
I0
sVChatRoomId
p327
I0
sVEncryChatRoomId
p328
g43
sVAttrStatus
p329
I16875839
sVStatues
p330
I0
stp331
Rp332
I1
bag25
(g29
g30
(dp333
VUserName
p334
V@d79db13ac32c3b060addb7a8ba9611ec230fd4041f27678dc33250632338702a
p335
sVCity
p336
V\u676d\u5dde
p337
sVSnsFlag
p338
I17
sVDisplayName
p339
g43
sVUniFriend
p340
I0
sVMemberCount
p341
I0
sVOwnerUin
p342
I0
sVMemberList
p343
g41
sVAlias
p344
g43
sVPYQuanPin
p345
Vshijiehenda
p346
sVSignature
p347
V\u2026\u2026
p348
sVRemarkPYInitial
p349
VWC
p350
sVContactFlag
p351
I3
sVUin
p352
I0
sVNickName
p353
V\u4e16\u754c\u5f88\u5927
p354
sVAppAccountFlag
p355
I0
sVVerifyFlag
p356
I0
sVRemarkPYQuanPin
p357
Vwangcheng
p358
sVHeadImgUrl
p359
V/cgi-bin/mmwebwx-bin/webwxgeticon?seq=649944609&username=@d79db13ac32c3b060addb7a8ba9611ec230fd4041f27678dc33250632338702a&skey=@crypt_b93ef9c0_3d36781bdd471e93df89b74ee29383b1
p360
sVKeyWord
p361
g43
sVProvince
p362
V\u6d59\u6c5f
p363
sVPYInitial
p364
VSJHD
p365
sVRemarkName
p366
V\u6c6a\u6210
p367
sVIsOwner
p368
I0
sVSex
p369
I1
sVStarFriend
p370
I0
sVHideInputBarFlag
p371
I0
sVChatRoomId
p372
I0
sVEncryChatRoomId
p373
g43
sVAttrStatus
p374
I102461
sVStatues
p375
I0
stp376
Rp377
I1
bag25
(g29
g30
(dp378
VUserName
p379
V@3593b15477326967d1968fbd3a671fb5513fe7683400b6972413833c15dd430f
p380
sVCity
p381
g43
sVSnsFlag
p382
I1
sVDisplayName
p383
g43
sVUniFriend
p384
I0
sVMemberCount
p385
I0
sVOwnerUin
p386
I0
sVMemberList
p387
g41
sVAlias
p388
g43
sVPYQuanPin
p389
VqiaobinxuanJackson18648389538
p390
sVSignature
p391
VJackson
p392
sVRemarkPYInitial
p393
g43
sVContactFlag
p394
I3
sVUin
p395
I0
sVNickName
p396
V\u4e54\u5f6c\u8f69Jackson18648389538
p397
sVAppAccountFlag
p398
I0
sVVerifyFlag
p399
I0
sVRemarkPYQuanPin
p400
g43
sVHeadImgUrl
p401
V/cgi-bin/mmwebwx-bin/webwxgeticon?seq=663843484&username=@3593b15477326967d1968fbd3a671fb5513fe7683400b6972413833c15dd430f&skey=@crypt_b93ef9c0_3d36781bdd471e93df89b74ee29383b1
p402
sVKeyWord
p403
g43
sVProvince
p404
g43
sVPYInitial
p405
VQBXJACKSON18648389538
p406
sVRemarkName
p407
g43
sVIsOwner
p408
I0
sVSex
p409
I1
sVStarFriend
p410
I0
sVHideInputBarFlag
p411
I0
sVChatRoomId
p412
I0
sVEncryChatRoomId
p413
g43
sVAttrStatus
p414
I233505
sVStatues
p415
I0
stp416
Rp417
I1
bag25
(g29
g30
(dp418
VUserName
p419
V@5dea12e58c47f2cfdf52a07f47c352cf71e9404f79257414b69c66ddd206bdbe
p420
sVCity
p421
V\u9102\u5c14\u591a\u65af
p422
sVSnsFlag
p423
I49
sVDisplayName
p424
g43
sVUniFriend
p425
I0
sVMemberCount
p426
I0
sVOwnerUin
p427
I0
sVMemberList
p428
g41
sVAlias
p429
g43
sVPYQuanPin
p430
Vqin
p431
sVSignature
p432
V\u8d70\u81ea\u5df1\u7684\u8def\uff0c\u8ba9\u522b\u4eba\u53bb\u8bf4\u5427\u3002
p433
sVRemarkPYInitial
p434
VM
p435
sVContactFlag
p436
I3
sVUin
p437
I0
sVNickName
p438
V\u7434
p439
sVAppAccountFlag
p440
I0
sVVerifyFlag
p441
I0
sVRemarkPYQuanPin
p442
Vma
p443
sVHeadImgUrl
p444
V/cgi-bin/mmwebwx-bin/webwxgeticon?seq=663844285&username=@5dea12e58c47f2cfdf52a07f47c352cf71e9404f79257414b69c66ddd206bdbe&skey=@crypt_b93ef9c0_3d36781bdd471e93df89b74ee29383b1
p445
sVKeyWord
p446
g43
sVProvince
p447
V\u5185\u8499\u53e4
p448
sVPYInitial
p449
VQ
p450
sVRemarkName
p451
V\u5988
p452
sVIsOwner
p453
I0
sVSex
p454
I2
sVStarFriend
p455
I0
sVHideInputBarFlag
p456
I0
sVChatRoomId
p457
I0
sVEncryChatRoomId
p458
g43
sVAttrStatus
p459
I102501
sVStatues
p460
I0
stp461
Rp462
I1
bag25
(g29
g30
(dp463
VUserName
p464
V@6b50e3c6854b53a7214d0f5b136464c2136f9852f1e3d6b4b14e28666ff2abde
p465
sVCity
p466
g43
sVSnsFlag
p467
I1
sVDisplayName
p468
g43
sVUniFriend
p469
I0
sVMemberCount
p470
I0
sVOwnerUin
p471
I0
sVMemberList
p472
g41
sVAlias
p473
g43
sVPYQuanPin
p474
VLittlegentleman
p475
sVSignature
p476
V\u522b\u5728\u4eba\u524d\u8c03\u4f83\u81ea\u5df1\u7684\u7406\u60f3\uff0c\u4f60\u4e00\u76f4\u4e3a\u5b83\u652f\u4ed8\u7684\u662f\u81ea\u5df1\u7684\u751f\u547d
p477
sVRemarkPYInitial
p478
g43
sVContactFlag
p479
I32771
sVUin
p480
I0
sVNickName
p481
VLittle gentleman
p482
sVAppAccountFlag
p483
I0
sVVerifyFlag
p484
I0
sVRemarkPYQuanPin
p485
g43
sVHeadImgUrl
p486
V/cgi-bin/mmwebwx-bin/webwxgeticon?seq=663840884&username=@6b50e3c6854b53a7214d0f5b136464c2136f9852f1e3d6b4b14e28666ff2abde&skey=@crypt_b93ef9c0_3d36781bdd471e93df89b74ee29383b1
p487
sVKeyWord
p488
g43
sVProvince
p489
g43
sVPYInitial
p490
VLITTLEGENTLEMAN
p491
sVRemarkName
p492
g43
sVIsOwner
p493
I0
sVSex
p494
I2
sVStarFriend
p495
I0
sVHideInputBarFlag
p496
I0
sVChatRoomId
p497
I0
sVEncryChatRoomId
p498
g43
sVAttrStatus
p499
I98597
sVStatues
p500
I0
stp501
Rp502
I1
bag25
(g29
g30
(dp503
VUserName
p504
V@0670533da802fb79508661f81ec82ec4de374e6d516c4a2757f00254a3ea2abf
p505
sVCity
p506
g43
sVSnsFlag
p507
I0
sVDisplayName
p508
g43
sVUniFriend
p509
I0
sVMemberCount
p510
I0
sVOwnerUin
p511
I0
sVMemberList
p512
g41
sVAlias
p513
g43
sVPYQuanPin
p514
Vaidejiushini
p515
sVSignature
p516
g43
sVRemarkPYInitial
p517
VMG2H
p518
sVContactFlag
p519
I3
sVUin
p520
I0
sVNickName
p521
V\u7231\u7684\u5c31\u662f\u4f60
p522
sVAppAccountFlag
p523
I0
sVVerifyFlag
p524
I0
sVRemarkPYQuanPin
p525
Vmengge2hao
p526
sVHeadImgUrl
p527
V/cgi-bin/mmwebwx-bin/webwxgeticon?seq=663846191&username=@0670533da802fb79508661f81ec82ec4de374e6d516c4a2757f00254a3ea2abf&skey=@crypt_b93ef9c0_3d36781bdd471e93df89b74ee29383b1
p528
sVKeyWord
p529
g43
sVProvince
p530
g43
sVPYInitial
p531
VADJSN
p532
sVRemarkName
p533
V\u731b\u54e52\u53f7
p534
sVIsOwner
p535
I0
sVSex
p536
I0
sVStarFriend
p537
I0
sVHideInputBarFlag
p538
I0
sVChatRoomId
p539
I0
sVEncryChatRoomId
p540
g43
sVAttrStatus
p541
I233509
sVStatues
p542
I0
stp543
Rp544
I1
bag25
(g29
g30
(dp545
VUserName
p546
V@fe3bbf0c08b22c37113e82bfc6acdb4dce8a4e2a95af52b469e2a0a1eefa6c16
p547
sVCity
p548
g43
sVSnsFlag
p549
I17
sVDisplayName
p550
g43
sVUniFriend
p551
I0
sVMemberCount
p552
I0
sVOwnerUin
p553
I0
sVMemberList
p554
g41
sVAlias
p555
g43
sVPYQuanPin
p556
Vtrytobeapeopleiwanttobe
p557
sVSignature
p558
V\u6709\u4e00\u79cd\u843d\u5dee\u662f\u4f60\u914d\u4e0d\u4e0a\u81ea\u5df1\u7684\u91ce\u5fc3\u4e5f\u8f9c\u8d1f\u4e86\u6240\u53d7\u82e6\u96be
p559
sVRemarkPYInitial
p560
VCY
p561
sVContactFlag
p562
I1
sVUin
p563
I0
sVNickName
p564
Vtry to be  a people  i want to be
p565
sVAppAccountFlag
p566
I0
sVVerifyFlag
p567
I0
sVRemarkPYQuanPin
p568
Vchenying
p569
sVHeadImgUrl
p570
V/cgi-bin/mmwebwx-bin/webwxgeticon?seq=665610394&username=@fe3bbf0c08b22c37113e82bfc6acdb4dce8a4e2a95af52b469e2a0a1eefa6c16&skey=@crypt_b93ef9c0_3d36781bdd471e93df89b74ee29383b1
p571
sVKeyWord
p572
g43
sVProvince
p573
g43
sVPYInitial
p574
VTRYTOBEAPEOPLEIWANTTOBE
p575
sVRemarkName
p576
V\u9648\u6620
p577
sVIsOwner
p578
I0
sVSex
p579
I0
sVStarFriend
p580
I0
sVHideInputBarFlag
p581
I0
sVChatRoomId
p582
I0
sVEncryChatRoomId
p583
g43
sVAttrStatus
p584
I230309
sVStatues
p585
I0
stp586
Rp587
I1
bag25
(g29
g30
(dp588
VUserName
p589
V@0814f8aab96182fc006710a3246a37a19096806cf78b73506a5539c381345941
p590
sVCity
p591
V\u592a\u539f
p592
sVSnsFlag
p593
I17
sVDisplayName
p594
g43
sVUniFriend
p595
I0
sVMemberCount
p596
I0
sVOwnerUin
p597
I0
sVMemberList
p598
g41
sVAlias
p599
g43
sVPYQuanPin
p600
VMrHolf
p601
sVSignature
p602
V\u6709\u5b9e\u529b\u7684\u88c5\u903c\u53eb\u725b\u903c\u3002\u6ca1\u5b9e\u529b\u7684\u88c5\u903c\u662f\u50bb\u903c
p603
sVRemarkPYInitial
p604
VHFMRHOLF
p605
sVContactFlag
p606
I3
sVUin
p607
I0
sVNickName
p608
VMr.Holf
p609
sVAppAccountFlag
p610
I0
sVVerifyFlag
p611
I0
sVRemarkPYQuanPin
p612
VhaofuMrHolf
p613
sVHeadImgUrl
p614
V/cgi-bin/mmwebwx-bin/webwxgeticon?seq=663844757&username=@0814f8aab96182fc006710a3246a37a19096806cf78b73506a5539c381345941&skey=@crypt_b93ef9c0_3d36781bdd471e93df89b74ee29383b1
p615
sVKeyWord
p616
g43
sVProvince
p617
V\u5c71\u897f
p618
sVPYInitial
p619
VMRHOLF
p620
sVRemarkName
p621
V\u90dd\u798fMr.Holf
p622
sVIsOwner
p623
I0
sVSex
p624
I1
sVStarFriend
p625
I0
sVHideInputBarFlag
p626
I0
sVChatRoomId
p627
I0
sVEncryChatRoomId
p628
g43
sVAttrStatus
p629
I16876479
sVStatues
p630
I0
stp631
Rp632
I1
bag25
(g29
g30
(dp633
VUserName
p634
V@65d0c765c9f025d27aaafe345914d5edc1d96a326b9deaa0c42b165275748492
p635
sVCity
p636
g43
sVSnsFlag
p637
I49
sVDisplayName
p638
g43
sVUniFriend
p639
I0
sVMemberCount
p640
I0
sVOwnerUin
p641
I0
sVMemberList
p642
g41
sVAlias
p643
g43
sVPYQuanPin
p644
Vchefangfang
p645
sVSignature
p646
V \u670b\u53cb\u570812\u53f7\u6062\u590d
p647
sVRemarkPYInitial
p648
g43
sVContactFlag
p649
I3
sVUin
p650
I0
sVNickName
p651
V\u8f66\u82b3\u82b3
p652
sVAppAccountFlag
p653
I0
sVVerifyFlag
p654
I0
sVRemarkPYQuanPin
p655
g43
sVHeadImgUrl
p656
V/cgi-bin/mmwebwx-bin/webwxgeticon?seq=665615586&username=@65d0c765c9f025d27aaafe345914d5edc1d96a326b9deaa0c42b165275748492&skey=@crypt_b93ef9c0_3d36781bdd471e93df89b74ee29383b1
p657
sVKeyWord
p658
g43
sVProvince
p659
g43
sVPYInitial
p660
VCFF
p661
sVRemarkName
p662
g43
sVIsOwner
p663
I0
sVSex
p664
I2
sVStarFriend
p665
I0
sVHideInputBarFlag
p666
I0
sVChatRoomId
p667
I0
sVEncryChatRoomId
p668
g43
sVAttrStatus
p669
L2147715001L
sVStatues
p670
I0
stp671
Rp672
I1
bag25
(g29
g30
(dp673
VUserName
p674
V@f963b352ba3f4c03babe8d4935f3252586af1329d7b5cca2a3370d33f66fb437
p675
sVCity
p676
V\u516d\u5b89
p677
sVSnsFlag
p678
I49
sVDisplayName
p679
g43
sVUniFriend
p680
I0
sVMemberCount
p681
I0
sVOwnerUin
p682
I0
sVMemberList
p683
g41
sVAlias
p684
g43
sVPYQuanPin
p685
Vxinyuan
p686
sVSignature
p687
V\u6625\u6696\u82b1\u5f00
p688
sVRemarkPYInitial
p689
VYZJ
p690
sVContactFlag
p691
I65795
sVUin
p692
I0
sVNickName
p693
V\u5fc3\u613f
p694
sVAppAccountFlag
p695
I0
sVVerifyFlag
p696
I0
sVRemarkPYQuanPin
p697
Vyanzhenjie
p698
sVHeadImgUrl
p699
V/cgi-bin/mmwebwx-bin/webwxgeticon?seq=649954361&username=@f963b352ba3f4c03babe8d4935f3252586af1329d7b5cca2a3370d33f66fb437&skey=@crypt_b93ef9c0_3d36781bdd471e93df89b74ee29383b1
p700
sVKeyWord
p701
g43
sVProvince
p702
V\u5b89\u5fbd
p703
sVPYInitial
p704
VXY
p705
sVRemarkName
p706
V\u71d5\u73cd\u59d0
p707
sVIsOwner
p708
I0
sVSex
p709
I2
sVStarFriend
p710
I0
sVHideInputBarFlag
p711
I0
sVChatRoomId
p712
I0
sVEncryChatRoomId
p713
g43
sVAttrStatus
p714
I102813
sVStatues
p715
I0
stp716
Rp717
I1
bag25
(g29
g30
(dp718
VUserName
p719
V@2ce5d1be82096c47c231092d642030bc44a1975e5f2081465e98777b110f10cd
p720
sVCity
p721
g43
sVSnsFlag
p722
I49
sVDisplayName
p723
g43
sVUniFriend
p724
I0
sVMemberCount
p725
I0
sVOwnerUin
p726
I0
sVMemberList
p727
g41
sVAlias
p728
g43
sVPYQuanPin
p729
Vzhangbinlin
p730
sVSignature
p731
Vlife is just like 1155665 4433221
p732
sVRemarkPYInitial
p733
VBL
p734
sVContactFlag
p735
I8193
sVUin
p736
I0
sVNickName
p737
V\u5f20\u658c\u9e9f
p738
sVAppAccountFlag
p739
I0
sVVerifyFlag
p740
I0
sVRemarkPYQuanPin
p741
Vbinlin
p742
sVHeadImgUrl
p743
V/cgi-bin/mmwebwx-bin/webwxgeticon?seq=649950312&username=@2ce5d1be82096c47c231092d642030bc44a1975e5f2081465e98777b110f10cd&skey=@crypt_b93ef9c0_3d36781bdd471e93df89b74ee29383b1
p744
sVKeyWord
p745
g43
sVProvince
p746
V\u5317\u4eac
p747
sVPYInitial
p748
VZBL
p749
sVRemarkName
p750
V\u658c\u9e9f
p751
sVIsOwner
p752
I0
sVSex
p753
I1
sVStarFriend
p754
I0
sVHideInputBarFlag
p755
I0
sVChatRoomId
p756
I0
sVEncryChatRoomId
p757
g43
sVAttrStatus
p758
I33787941
sVStatues
p759
I0
stp760
Rp761
I1
bag25
(g29
g30
(dp762
VUserName
p763
V@a14169f664da58a8d2cc80bb5d7262785cf1b4361c2bc71ec2895ef6877e7826
p764
sVCity
p765
V\u6b66\u6c49
p766
sVSnsFlag
p767
I17
sVDisplayName
p768
g43
sVUniFriend
p769
I0
sVMemberCount
p770
I0
sVOwnerUin
p771
I0
sVMemberList
p772
g41
sVAlias
p773
g43
sVPYQuanPin
p774
Vyemuxiu
p775
sVSignature
p776
V\u6c5d\u306e\u4e2d\u306b\u6211\u304c\u3044\u308b\u9650\u308a,\u5e38\u306b\u6211\u306e\u5fc3\u306e\u4e2d\u306b\u6c5d\u3068\u5171\u306b\u3042\u308b.
p777
sVRemarkPYInitial
p778
VYL
p779
sVContactFlag
p780
I3
sVUin
p781
I0
sVNickName
p782
V\u53f6\u6c90\u4fee
p783
sVAppAccountFlag
p784
I0
sVVerifyFlag
p785
I0
sVRemarkPYQuanPin
p786
Vyangli
p787
sVHeadImgUrl
p788
V/cgi-bin/mmwebwx-bin/webwxgeticon?seq=665624677&username=@a14169f664da58a8d2cc80bb5d7262785cf1b4361c2bc71ec2895ef6877e7826&skey=@crypt_b93ef9c0_3d36781bdd471e93df89b74ee29383b1
p789
sVKeyWord
p790
g43
sVProvince
p791
V\u6e56\u5317
p792
sVPYInitial
p793
VYMX
p794
sVRemarkName
p795
V\u6768\u4fd0
p796
sVIsOwner
p797
I0
sVSex
p798
I2
sVStarFriend
p799
I0
sVHideInputBarFlag
p800
I0
sVChatRoomId
p801
I0
sVEncryChatRoomId
p802
g43
sVAttrStatus
p803
I110693
sVStatues
p804
I0
stp805
Rp806
I1
bag25
(g29
g30
(dp807
VUserName
p808
V@c6caae4c85a460e4c05737bd57069e4dfd8330e765e8cc7375430107de3937de
p809
sVCity
p810
g43
sVSnsFlag
p811
I49
sVDisplayName
p812
g43
sVUniFriend
p813
I0
sVMemberCount
p814
I0
sVOwnerUin
p815
I0
sVMemberList
p816
g41
sVAlias
p817
g43
sVPYQuanPin
p818
Vzhuchirenspanclassemojiemoji1f3a4spanyarong
p819
sVSignature
p820
g43
sVRemarkPYInitial
p821
VYR
p822
sVContactFlag
p823
I65537
sVUin
p824
I0
sVNickName
p825
V\u4e3b\u6301\u4eba\U0001f3a4\u96c5\u84c9
p826
sVAppAccountFlag
p827
I0
sVVerifyFlag
p828
I0
sVRemarkPYQuanPin
p829
Vyarong
p830
sVHeadImgUrl
p831
V/cgi-bin/mmwebwx-bin/webwxgeticon?seq=663843768&username=@c6caae4c85a460e4c05737bd57069e4dfd8330e765e8cc7375430107de3937de&skey=@crypt_b93ef9c0_3d36781bdd471e93df89b74ee29383b1
p832
sVKeyWord
p833
g43
sVProvince
p834
g43
sVPYInitial
p835
VZCRSPANCLASSEMOJIEMOJI1F3A4SPANYR
p836
sVRemarkName
p837
V\u96c5\u84c9
p838
sVIsOwner
p839
I0
sVSex
p840
I2
sVStarFriend
p841
I0
sVHideInputBarFlag
p842
I0
sVChatRoomId
p843
I0
sVEncryChatRoomId
p844
g43
sVAttrStatus
p845
I99365
sVStatues
p846
I0
stp847
Rp848
I1
bag25
(g29
g30
(dp849
VUserName
p850
V@973e1e6665d0e6daca4ddd8c07e572b4c49f88cd54dab01e4f84b2ac2abf9dba
p851
sVCity
p852
V\u82cf\u5dde
p853
sVSnsFlag
p854
I1
sVDisplayName
p855
g43
sVUniFriend
p856
I0
sVMemberCount
p857
I0
sVOwnerUin
p858
I0
sVMemberList
p859
g41
sVAlias
p860
g43
sVPYQuanPin
p861
VAchaokequanshuA
p862
sVSignature
p863
V\u8d2d\u7269\u8bf7\u770b\u5c01\u9762
p864
sVRemarkPYInitial
p865
g43
sVContactFlag
p866
I65539
sVUin
p867
I0
sVNickName
p868
VA\u6f6e\u79d1\u5168\u4e66A
p869
sVAppAccountFlag
p870
I0
sVVerifyFlag
p871
I0
sVRemarkPYQuanPin
p872
g43
sVHeadImgUrl
p873
V/cgi-bin/mmwebwx-bin/webwxgeticon?seq=665614203&username=@973e1e6665d0e6daca4ddd8c07e572b4c49f88cd54dab01e4f84b2ac2abf9dba&skey=@crypt_b93ef9c0_3d36781bdd471e93df89b74ee29383b1
p874
sVKeyWord
p875
g43
sVProvince
p876
V\u6c5f\u82cf
p877
sVPYInitial
p878
VACKQSA
p879
sVRemarkName
p880
g43
sVIsOwner
p881
I0
sVSex
p882
I2
sVStarFriend
p883
I0
sVHideInputBarFlag
p884
I0
sVChatRoomId
p885
I0
sVEncryChatRoomId
p886
g43
sVAttrStatus
p887
I102469
sVStatues
p888
I0
stp889
Rp890
I1
bag25
(g29
g30
(dp891
VUserName
p892
V@204ad550fab54c76bdbcb42dba54a27d8070d4960526c2348a522a460dae0ae2
p893
sVCity
p894
V\u6b66\u6c49
p895
sVSnsFlag
p896
I177
sVDisplayName
p897
g43
sVUniFriend
p898
I0
sVMemberCount
p899
I0
sVOwnerUin
p900
I0
sVMemberList
p901
g41
sVAlias
p902
g43
sVPYQuanPin
p903
Vxupeng
p904
sVSignature
p905
g43
sVRemarkPYInitial
p906
g43
sVContactFlag
p907
I65537
sVUin
p908
I0
sVNickName
p909
V\u5f90\u9e4f
p910
sVAppAccountFlag
p911
I0
sVVerifyFlag
p912
I0
sVRemarkPYQuanPin
p913
g43
sVHeadImgUrl
p914
V/cgi-bin/mmwebwx-bin/webwxgeticon?seq=663841263&username=@204ad550fab54c76bdbcb42dba54a27d8070d4960526c2348a522a460dae0ae2&skey=@crypt_b93ef9c0_3d36781bdd471e93df89b74ee29383b1
p915
sVKeyWord
p916
g43
sVProvince
p917
V\u6e56\u5317
p918
sVPYInitial
p919
VXP
p920
sVRemarkName
p921
g43
sVIsOwner
p922
I0
sVSex
p923
I1
sVStarFriend
p924
I0
sVHideInputBarFlag
p925
I0
sVChatRoomId
p926
I0
sVEncryChatRoomId
p927
g43
sVAttrStatus
p928
I111207
sVStatues
p929
I0
stp930
Rp931
I1
bag25
(g29
g30
(dp932
VUserName
p933
V@d5bb2f2b699325847c370cc64e696cdd52d6b6257034b93dd6b2935116a7f7c9
p934
sVCity
p935
V\u5357\u901a
p936
sVSnsFlag
p937
I17
sVDisplayName
p938
g43
sVUniFriend
p939
I0
sVMemberCount
p940
I0
sVOwnerUin
p941
I0
sVMemberList
p942
g41
sVAlias
p943
g43
sVPYQuanPin
p944
Vyanbotao
p945
sVSignature
p946
V\u6b32\u5f97\u5176\u4e0a\uff0c\u5fc5\u6c42\u4e0a\u4e0a
p947
sVRemarkPYInitial
p948
g43
sVContactFlag
p949
I65537
sVUin
p950
I0
sVNickName
p951
V\u95eb\u535a\u97ec
p952
sVAppAccountFlag
p953
I0
sVVerifyFlag
p954
I0
sVRemarkPYQuanPin
p955
g43
sVHeadImgUrl
p956
V/cgi-bin/mmwebwx-bin/webwxgeticon?seq=649985395&username=@d5bb2f2b699325847c370cc64e696cdd52d6b6257034b93dd6b2935116a7f7c9&skey=@crypt_b93ef9c0_3d36781bdd471e93df89b74ee29383b1
p957
sVKeyWord
p958
g43
sVProvince
p959
V\u6c5f\u82cf
p960
sVPYInitial
p961
VYBT
p962
sVRemarkName
p963
g43
sVIsOwner
p964
I0
sVSex
p965
I1
sVStarFriend
p966
I0
sVHideInputBarFlag
p967
I0
sVChatRoomId
p968
I0
sVEncryChatRoomId
p969
g43
sVAttrStatus
p970
I98597
sVStatues
p971
I0
stp972
Rp973
I1
bag25
(g29
g30
(dp974
VUserName
p975
V@f51cb388590775e752979d2a3a56442ec8422cec6c92fced40fcbaae84ec30fc
p976
sVCity
p977
g43
sVSnsFlag
p978
I0
sVDisplayName
p979
g43
sVUniFriend
p980
I0
sVMemberCount
p981
I0
sVOwnerUin
p982
I0
sVMemberList
p983
g41
sVAlias
p984
g43
sVPYQuanPin
p985
Vwutongyu
p986
sVSignature
p987
g43
sVRemarkPYInitial
p988
VWT
p989
sVContactFlag
p990
I1
sVUin
p991
I0
sVNickName
p992
V\u68a7\u6850\u96e8
p993
sVAppAccountFlag
p994
I0
sVVerifyFlag
p995
I0
sVRemarkPYQuanPin
p996
Vwutong
p997
sVHeadImgUrl
p998
V/cgi-bin/mmwebwx-bin/webwxgeticon?seq=649999889&username=@f51cb388590775e752979d2a3a56442ec8422cec6c92fced40fcbaae84ec30fc&skey=@crypt_b93ef9c0_3d36781bdd471e93df89b74ee29383b1
p999
sVKeyWord
p1000
g43
sVProvince
p1001
g43
sVPYInitial
p1002
VWTY
p1003
sVRemarkName
p1004
V\u68a7\u6850
p1005
sVIsOwner
p1006
I0
sVSex
p1007
I0
sVStarFriend
p1008
I0
sVHideInputBarFlag
p1009
I0
sVChatRoomId
p1010
I0
sVEncryChatRoomId
p1011
g43
sVAttrStatus
p1012
I233509
sVStatues
p1013
I0
stp1014
Rp1015
I1
bag25
(g29
g30
(dp1016
VUserName
p1017
V@2fa56d733f665480f4c574e1295624bc
p1018
sVCity
p1019
V\u592a\u539f
p1020
sVSnsFlag
p1021
I177
sVDisplayName
p1022
g43
sVUniFriend
p1023
I0
sVMemberCount
p1024
I0
sVOwnerUin
p1025
I0
sVMemberList
p1026
g41
sVAlias
p1027
g43
sVPYQuanPin
p1028
Vshouwang
p1029
sVSignature
p1030
V\u5df1\u6240\u4e0d\u6b32\uff0c\u52ff\u65bd\u4e8e\u4eba\uff01
p1031
sVRemarkPYInitial
p1032
VHW
p1033
sVContactFlag
p1034
I65537
sVUin
p1035
I0
sVNickName
p1036
V\u5b88\u671b
p1037
sVAppAccountFlag
p1038
I0
sVVerifyFlag
p1039
I0
sVRemarkPYQuanPin
p1040
Vhuangwei
p1041
sVHeadImgUrl
p1042
V/cgi-bin/mmwebwx-bin/webwxgeticon?seq=665625386&username=@2fa56d733f665480f4c574e1295624bc&skey=@crypt_b93ef9c0_3d36781bdd471e93df89b74ee29383b1
p1043
sVKeyWord
p1044
Vmmy
p1045
sVProvince
p1046
V\u5c71\u897f
p1047
sVPYInitial
p1048
VSW
p1049
sVRemarkName
p1050
V\u9ec4\u5c09
p1051
sVIsOwner
p1052
I0
sVSex
p1053
I1
sVStarFriend
p1054
I0
sVHideInputBarFlag
p1055
I0
sVChatRoomId
p1056
I0
sVEncryChatRoomId
p1057
g43
sVAttrStatus
p1058
I112759
sVStatues
p1059
I0
stp1060
Rp1061
I1
bag25
(g29
g30
(dp1062
VUserName
p1063
V@a067c9fa16ae76e1d940f0db61e26c575905162ad9d4935a007efe73da575a78
p1064
sVCity
p1065
g43
sVSnsFlag
p1066
I17
sVDisplayName
p1067
g43
sVUniFriend
p1068
I0
sVMemberCount
p1069
I0
sVOwnerUin
p1070
I0
sVMemberList
p1071
g41
sVAlias
p1072
g43
sVPYQuanPin
p1073
V?li?
p1074
sVSignature
p1075
V\u6b64\u000a \u4eba\u000a    \u5df2\u000a    \u9690 \u000a    \u8eab\uff0c\u000a   \u522b\u000a  \u627e\u000a\u4e86 \u000a\uff01
p1076
sVRemarkPYInitial
p1077
VLY
p1078
sVContactFlag
p1079
I1
sVUin
p1080
I0
sVNickName
p1081
V\ua9c1\u8e92\ua9c2
p1082
sVAppAccountFlag
p1083
I0
sVVerifyFlag
p1084
I0
sVRemarkPYQuanPin
p1085
Vliyue
p1086
sVHeadImgUrl
p1087
V/cgi-bin/mmwebwx-bin/webwxgeticon?seq=665625526&username=@a067c9fa16ae76e1d940f0db61e26c575905162ad9d4935a007efe73da575a78&skey=@crypt_b93ef9c0_3d36781bdd471e93df89b74ee29383b1
p1088
sVKeyWord
p1089
Vli1
p1090
sVProvince
p1091
VMoxico
p1092
sVPYInitial
p1093
V?L?
p1094
sVRemarkName
p1095
V\u674e\u8dc3
p1096
sVIsOwner
p1097
I0
sVSex
p1098
I1
sVStarFriend
p1099
I0
sVHideInputBarFlag
p1100
I0
sVChatRoomId
p1101
I0
sVEncryChatRoomId
p1102
g43
sVAttrStatus
p1103
I110719
sVStatues
p1104
I0
stp1105
Rp1106
I1
bag25
(g29
g30
(dp1107
VUserName
p1108
V@f846b87432c6c197d29482a1d5b1410cd577a80ea4f0684c2285b26b07a7daa9
p1109
sVCity
p1110
V\u5ffb\u5dde
p1111
sVSnsFlag
p1112
I0
sVDisplayName
p1113
g43
sVUniFriend
p1114
I0
sVMemberCount
p1115
I0
sVOwnerUin
p1116
I0
sVMemberList
p1117
g41
sVAlias
p1118
g43
sVPYQuanPin
p1119
Vzhizuchangyue
p1120
sVSignature
p1121
g43
sVRemarkPYInitial
p1122
g43
sVContactFlag
p1123
I32771
sVUin
p1124
I0
sVNickName
p1125
V\u77e5\u8db3\u5e38\u4e50
p1126
sVAppAccountFlag
p1127
I0
sVVerifyFlag
p1128
I0
sVRemarkPYQuanPin
p1129
g43
sVHeadImgUrl
p1130
V/cgi-bin/mmwebwx-bin/webwxgeticon?seq=667601182&username=@f846b87432c6c197d29482a1d5b1410cd577a80ea4f0684c2285b26b07a7daa9&skey=@crypt_b93ef9c0_3d36781bdd471e93df89b74ee29383b1
p1131
sVKeyWord
p1132
g43
sVProvince
p1133
V\u5c71\u897f
p1134
sVPYInitial
p1135
VZZCY
p1136
sVRemarkName
p1137
g43
sVIsOwner
p1138
I0
sVSex
p1139
I2
sVStarFriend
p1140
I0
sVHideInputBarFlag
p1141
I0
sVChatRoomId
p1142
I0
sVEncryChatRoomId
p1143
g43
sVAttrStatus
p1144
I4133
sVStatues
p1145
I0
stp1146
Rp1147
I1
bag25
(g29
g30
(dp1148
VUserName
p1149
V@f1c8ccb95e677b32ab0949041402298b
p1150
sVCity
p1151
V\u6606\u660e
p1152
sVSnsFlag
p1153
I49
sVDisplayName
p1154
g43
sVUniFriend
p1155
I0
sVMemberCount
p1156
I0
sVOwnerUin
p1157
I0
sVMemberList
p1158
g41
sVAlias
p1159
g43
sVPYQuanPin
p1160
Vxiaodu
p1161
sVSignature
p1162
g43
sVRemarkPYInitial
p1163
g43
sVContactFlag
p1164
I65795
sVUin
p1165
I0
sVNickName
p1166
V\u5c0f\u675c
p1167
sVAppAccountFlag
p1168
I0
sVVerifyFlag
p1169
I0
sVRemarkPYQuanPin
p1170
g43
sVHeadImgUrl
p1171
V/cgi-bin/mmwebwx-bin/webwxgeticon?seq=665618061&username=@f1c8ccb95e677b32ab0949041402298b&skey=@crypt_b93ef9c0_3d36781bdd471e93df89b74ee29383b1
p1172
sVKeyWord
p1173
Vduz
p1174
sVProvince
p1175
V\u4e91\u5357
p1176
sVPYInitial
p1177
VXD
p1178
sVRemarkName
p1179
g43
sVIsOwner
p1180
I0
sVSex
p1181
I1
sVStarFriend
p1182
I0
sVHideInputBarFlag
p1183
I0
sVChatRoomId
p1184
I0
sVEncryChatRoomId
p1185
g43
sVAttrStatus
p1186
I103527
sVStatues
p1187
I0
stp1188
Rp1189
I1
bag25
(g29
g30
(dp1190
VUserName
p1191
V@83f3fb96091e18b30325eb1162851c9c134bdf32513bd41240a7df1e6fdfdcf3
p1192
sVCity
p1193
g43
sVSnsFlag
p1194
I1
sVDisplayName
p1195
g43
sVUniFriend
p1196
I0
sVMemberCount
p1197
I0
sVOwnerUin
p1198
I0
sVMemberList
p1199
g41
sVAlias
p1200
g43
sVPYQuanPin
p1201
g43
sVSignature
p1202
g43
sVRemarkPYInitial
p1203
g43
sVContactFlag
p1204
I32771
sVUin
p1205
I0
sVNickName
p1206
V\u3002\u3002\u3002\u3002
p1207
sVAppAccountFlag
p1208
I0
sVVerifyFlag
p1209
I0
sVRemarkPYQuanPin
p1210
g43
sVHeadImgUrl
p1211
V/cgi-bin/mmwebwx-bin/webwxgeticon?seq=665610685&username=@83f3fb96091e18b30325eb1162851c9c134bdf32513bd41240a7df1e6fdfdcf3&skey=@crypt_b93ef9c0_3d36781bdd471e93df89b74ee29383b1
p1212
sVKeyWord
p1213
g43
sVProvince
p1214
g43
sVPYInitial
p1215
g43
sVRemarkName
p1216
g43
sVIsOwner
p1217
I0
sVSex
p1218
I0
sVStarFriend
p1219
I0
sVHideInputBarFlag
p1220
I0
sVChatRoomId
p1221
I0
sVEncryChatRoomId
p1222
g43
sVAttrStatus
p1223
I4133
sVStatues
p1224
I0
stp1225
Rp1226
I1
bag25
(g29
g30
(dp1227
VUserName
p1228
V@d3092350b5dd19ef58ced58c9a52633ff332540660472cc218af1b995d94d3f7
p1229
sVCity
p1230
V\u90d1\u5dde
p1231
sVSnsFlag
p1232
I17
sVDisplayName
p1233
g43
sVUniFriend
p1234
I0
sVMemberCount
p1235
I0
sVOwnerUin
p1236
I0
sVMemberList
p1237
g41
sVAlias
p1238
g43
sVPYQuanPin
p1239
Vlixiao
p1240
sVSignature
p1241
Vangel
p1242
sVRemarkPYInitial
p1243
g43
sVContactFlag
p1244
I1
sVUin
p1245
I0
sVNickName
p1246
V\u674e\u6f47
p1247
sVAppAccountFlag
p1248
I0
sVVerifyFlag
p1249
I0
sVRemarkPYQuanPin
p1250
g43
sVHeadImgUrl
p1251
V/cgi-bin/mmwebwx-bin/webwxgeticon?seq=665612599&username=@d3092350b5dd19ef58ced58c9a52633ff332540660472cc218af1b995d94d3f7&skey=@crypt_b93ef9c0_3d36781bdd471e93df89b74ee29383b1
p1252
sVKeyWord
p1253
g43
sVProvince
p1254
V\u6cb3\u5357
p1255
sVPYInitial
p1256
VLX
p1257
sVRemarkName
p1258
g43
sVIsOwner
p1259
I0
sVSex
p1260
I2
sVStarFriend
p1261
I0
sVHideInputBarFlag
p1262
I0
sVChatRoomId
p1263
I0
sVEncryChatRoomId
p1264
g43
sVAttrStatus
p1265
I233917
sVStatues
p1266
I0
stp1267
Rp1268
I1
bag25
(g29
g30
(dp1269
VUserName
p1270
V@9d0eb49c3444749bda1a7f6ca885f58f
p1271
sVCity
p1272
V\u6b66\u6c49
p1273
sVSnsFlag
p1274
I17
sVDisplayName
p1275
g43
sVUniFriend
p1276
I0
sVMemberCount
p1277
I0
sVOwnerUin
p1278
I0
sVMemberList
p1279
g41
sVAlias
p1280
g43
sVPYQuanPin
p1281
Vchenzhigang
p1282
sVSignature
p1283
V\u5e38\u62ac\u5934\u4ef0\u671b\u5929\u7a7a\uff0c\u90a3\u662f\u6e34\u671b\u81ea\u7531\uff0c\u60f3\u98de\u7fd4\uff0c\u60f3\u505a\u4e2a\u98ce\u4e00\u6837\u7684\u7537\u5b50!
p1284
sVRemarkPYInitial
p1285
g43
sVContactFlag
p1286
I65795
sVUin
p1287
I0
sVNickName
p1288
V\u9648\u5fd7\u521a
p1289
sVAppAccountFlag
p1290
I0
sVVerifyFlag
p1291
I0
sVRemarkPYQuanPin
p1292
g43
sVHeadImgUrl
p1293
V/cgi-bin/mmwebwx-bin/webwxgeticon?seq=665617765&username=@9d0eb49c3444749bda1a7f6ca885f58f&skey=@crypt_b93ef9c0_3d36781bdd471e93df89b74ee29383b1
p1294
sVKeyWord
p1295
Vxia
p1296
sVProvince
p1297
V\u6e56\u5317
p1298
sVPYInitial
p1299
VCZG
p1300
sVRemarkName
p1301
g43
sVIsOwner
p1302
I0
sVSex
p1303
I1
sVStarFriend
p1304
I0
sVHideInputBarFlag
p1305
I0
sVChatRoomId
p1306
I0
sVEncryChatRoomId
p1307
g43
sVAttrStatus
p1308
I5797
sVStatues
p1309
I0
stp1310
Rp1311
I1
bag25
(g29
g30
(dp1312
VUserName
p1313
V@3642f31ac66cdccdddb80499d8dc1706db5c0b5d972eb47085d07a7daaf1531f
p1314
sVCity
p1315
V\u592a\u539f
p1316
sVSnsFlag
p1317
I17
sVDisplayName
p1318
g43
sVUniFriend
p1319
I0
sVMemberCount
p1320
I0
sVOwnerUin
p1321
I0
sVMemberList
p1322
g41
sVAlias
p1323
g43
sVPYQuanPin
p1324
Vxiaoqin
p1325
sVSignature
p1326
V\u6cd5\u5b89\u5929\u4e0b     \u5fb7\u6da6\u4eba\u5fc3
p1327
sVRemarkPYInitial
p1328
VQSMY
p1329
sVContactFlag
p1330
I65793
sVUin
p1331
I0
sVNickName
p1332
V\u5c0f\u79e6
p1333
sVAppAccountFlag
p1334
I0
sVVerifyFlag
p1335
I0
sVRemarkPYQuanPin
p1336
Vqinshimingyue
p1337
sVHeadImgUrl
p1338
V/cgi-bin/mmwebwx-bin/webwxgeticon?seq=663841051&username=@3642f31ac66cdccdddb80499d8dc1706db5c0b5d972eb47085d07a7daaf1531f&skey=@crypt_b93ef9c0_3d36781bdd471e93df89b74ee29383b1
p1339
sVKeyWord
p1340
g43
sVProvince
p1341
V\u5c71\u897f
p1342
sVPYInitial
p1343
VXQ
p1344
sVRemarkName
p1345
V\u79e6\u65f6\u660e\u6708
p1346
sVIsOwner
p1347
I0
sVSex
p1348
I1
sVStarFriend
p1349
I0
sVHideInputBarFlag
p1350
I0
sVChatRoomId
p1351
I0
sVEncryChatRoomId
p1352
g43
sVAttrStatus
p1353
I293
sVStatues
p1354
I0
stp1355
Rp1356
I1
bag25
(g29
g30
(dp1357
VUserName
p1358
V@02afc917395328cbccd624be42009608adb049baba46bf89342616da93228918
p1359
sVCity
p1360
V\u6b66\u6c49
p1361
sVSnsFlag
p1362
I17
sVDisplayName
p1363
g43
sVUniFriend
p1364
I0
sVMemberCount
p1365
I0
sVOwnerUin
p1366
I0
sVMemberList
p1367
g41
sVAlias
p1368
g43
sVPYQuanPin
p1369
Vhuxiaoyang
p1370
sVSignature
p1371
V\u5929\u7a7a\u6ca1\u6709\u75d5\u8ff9\uff0c\u4f46\u9e1f\u513f\u5df2\u7ecf\u98de\u8fc7\u3002
p1372
sVRemarkPYInitial
p1373
VHXY
p1374
sVContactFlag
p1375
I65795
sVUin
p1376
I0
sVNickName
p1377
V\u80e1\u5c0f\u9633
p1378
sVAppAccountFlag
p1379
I0
sVVerifyFlag
p1380
I0
sVRemarkPYQuanPin
p1381
Vhuxiaoyang
p1382
sVHeadImgUrl
p1383
V/cgi-bin/mmwebwx-bin/webwxgeticon?seq=638184481&username=@02afc917395328cbccd624be42009608adb049baba46bf89342616da93228918&skey=@crypt_b93ef9c0_3d36781bdd471e93df89b74ee29383b1
p1384
sVKeyWord
p1385
g43
sVProvince
p1386
V\u6e56\u5317
p1387
sVPYInitial
p1388
VHXY
p1389
sVRemarkName
p1390
V\u80e1\u5c0f\u9633
p1391
sVIsOwner
p1392
I0
sVSex
p1393
I1
sVStarFriend
p1394
I0
sVHideInputBarFlag
p1395
I0
sVChatRoomId
p1396
I0
sVEncryChatRoomId
p1397
g43
sVAttrStatus
p1398
I102437
sVStatues
p1399
I0
stp1400
Rp1401
I1
bag25
(g29
g30
(dp1402
VUserName
p1403
V@808d594befe74cd5afca8d9c8b3d3bdd0a8835c6370c8b1d2405fed97a50f7a8
p1404
sVCity
p1405
V\u6b66\u6c49
p1406
sVSnsFlag
p1407
I17
sVDisplayName
p1408
g43
sVUniFriend
p1409
I0
sVMemberCount
p1410
I0
sVOwnerUin
p1411
I0
sVMemberList
p1412
g41
sVAlias
p1413
g43
sVPYQuanPin
p1414
VBarcarolle
p1415
sVSignature
p1416
VI,m seeking
p1417
sVRemarkPYInitial
p1418
g43
sVContactFlag
p1419
I65793
sVUin
p1420
I0
sVNickName
p1421
VBarcarolle
p1422
sVAppAccountFlag
p1423
I0
sVVerifyFlag
p1424
I0
sVRemarkPYQuanPin
p1425
g43
sVHeadImgUrl
p1426
V/cgi-bin/mmwebwx-bin/webwxgeticon?seq=667602771&username=@808d594befe74cd5afca8d9c8b3d3bdd0a8835c6370c8b1d2405fed97a50f7a8&skey=@crypt_b93ef9c0_3d36781bdd471e93df89b74ee29383b1
p1427
sVKeyWord
p1428
g43
sVProvince
p1429
V\u6e56\u5317
p1430
sVPYInitial
p1431
VBARCAROLLE
p1432
sVRemarkName
p1433
g43
sVIsOwner
p1434
I0
sVSex
p1435
I1
sVStarFriend
p1436
I0
sVHideInputBarFlag
p1437
I0
sVChatRoomId
p1438
I0
sVEncryChatRoomId
p1439
g43
sVAttrStatus
p1440
I102437
sVStatues
p1441
I0
stp1442
Rp1443
I1
bag25
(g29
g30
(dp1444
VUserName
p1445
V@6771fe72abcddf274041610d6c6f5b0a
p1446
sVCity
p1447
V\u53f0\u4e2d\u5e02
p1448
sVSnsFlag
p1449
I17
sVDisplayName
p1450
g43
sVUniFriend
p1451
I0
sVMemberCount
p1452
I0
sVOwnerUin
p1453
I0
sVMemberList
p1454
g41
sVAlias
p1455
g43
sVPYQuanPin
p1456
Vluojiashandemiao?xiayinileliaobing?
p1457
sVSignature
p1458
V\uc655\uad00\uc744 \uc4f0\ub824\ub294\uc790\uff0c\uadf8 \ubb34\uac8c\ub97c \uacac\ub38c-\uc7a5\ud61c\ubabd
p1459
sVRemarkPYInitial
p1460
g43
sVContactFlag
p1461
I65795
sVUin
p1462
I0
sVNickName
p1463
V\u73de\u73c8\u5c71\u7684\u55b5\u202e\u4e0b\u4e00\u4f60\u4e86\u64a9\u5e76\u202d
p1464
sVAppAccountFlag
p1465
I0
sVVerifyFlag
p1466
I0
sVRemarkPYQuanPin
p1467
g43
sVHeadImgUrl
p1468
V/cgi-bin/mmwebwx-bin/webwxgeticon?seq=667604206&username=@6771fe72abcddf274041610d6c6f5b0a&skey=@crypt_b93ef9c0_3d36781bdd471e93df89b74ee29383b1
p1469
sVKeyWord
p1470
VJHM
p1471
sVProvince
p1472
V\u53f0\u6e7e
p1473
sVPYInitial
p1474
VLJSDM?XYNLLB?
p1475
sVRemarkName
p1476
g43
sVIsOwner
p1477
I0
sVSex
p1478
I1
sVStarFriend
p1479
I0
sVHideInputBarFlag
p1480
I0
sVChatRoomId
p1481
I0
sVEncryChatRoomId
p1482
g43
sVAttrStatus
p1483
I107559
sVStatues
p1484
I0
stp1485
Rp1486
I1
bag25
(g29
g30
(dp1487
VUserName
p1488
V@6f44f4852463eab24163c43768bbe5a4ba2ce829bafebf3d785b95a7bb213b8d
p1489
sVCity
p1490
V\u8346\u5dde
p1491
sVSnsFlag
p1492
I17
sVDisplayName
p1493
g43
sVUniFriend
p1494
I0
sVMemberCount
p1495
I0
sVOwnerUin
p1496
I0
sVMemberList
p1497
g41
sVAlias
p1498
g43
sVPYQuanPin
p1499
Vshubaoguang
p1500
sVSignature
p1501
V\u865a\u5ea6\u4eca\u65e5\u5c31\u662f\u6bc1\u4e86\u6614\u65e5\u6210\u679c\uff0c\u4e22\u4e86\u6765\u65e5\u524d\u7a0b\uff01
p1502
sVRemarkPYInitial
p1503
VZWG
p1504
sVContactFlag
p1505
I65793
sVUin
p1506
I0
sVNickName
p1507
V\u4e66\u5305\u5e7f
p1508
sVAppAccountFlag
p1509
I0
sVVerifyFlag
p1510
I0
sVRemarkPYQuanPin
p1511
Vzhangwanguang
p1512
sVHeadImgUrl
p1513
V/cgi-bin/mmwebwx-bin/webwxgeticon?seq=667602978&username=@6f44f4852463eab24163c43768bbe5a4ba2ce829bafebf3d785b95a7bb213b8d&skey=@crypt_b93ef9c0_3d36781bdd471e93df89b74ee29383b1
p1514
sVKeyWord
p1515
g43
sVProvince
p1516
V\u6e56\u5317
p1517
sVPYInitial
p1518
VSBG
p1519
sVRemarkName
p1520
V\u5f20\u4e07\u5e7f
p1521
sVIsOwner
p1522
I0
sVSex
p1523
I1
sVStarFriend
p1524
I0
sVHideInputBarFlag
p1525
I0
sVChatRoomId
p1526
I0
sVEncryChatRoomId
p1527
g43
sVAttrStatus
p1528
I4197
sVStatues
p1529
I0
stp1530
Rp1531
I1
bag25
(g29
g30
(dp1532
VUserName
p1533
V@87da3334fd4e4edeff1301b5698799db37fca6d3219ebf432c7c5c8e66ab397d
p1534
sVCity
p1535
g43
sVSnsFlag
p1536
I1
sVDisplayName
p1537
g43
sVUniFriend
p1538
I0
sVMemberCount
p1539
I0
sVOwnerUin
p1540
I0
sVMemberList
p1541
g41
sVAlias
p1542
g43
sVPYQuanPin
p1543
VCHILDRENHUHU
p1544
sVSignature
p1545
V\u505a\u81ea\u5df1\u559c\u6b22\u7684\u4e8b\u513f\uff0c\u8bf4\u81ea\u5df1\u60f3\u8bf4\u7684\u8bdd\uff0c\u54ea\u6709\u90a3\u4e48\u6df7\u4e71\u7684\u4e1c\u897f
p1546
sVRemarkPYInitial
p1547
VLM
p1548
sVContactFlag
p1549
I3
sVUin
p1550
I0
sVNickName
p1551
VCHILDREN  HUHU
p1552
sVAppAccountFlag
p1553
I0
sVVerifyFlag
p1554
I0
sVRemarkPYQuanPin
p1555
Vliumeng
p1556
sVHeadImgUrl
p1557
V/cgi-bin/mmwebwx-bin/webwxgeticon?seq=667600314&username=@87da3334fd4e4edeff1301b5698799db37fca6d3219ebf432c7c5c8e66ab397d&skey=@crypt_b93ef9c0_3d36781bdd471e93df89b74ee29383b1
p1558
sVKeyWord
p1559
g43
sVProvince
p1560
g43
sVPYInitial
p1561
VCHILDRENHUHU
p1562
sVRemarkName
p1563
V\u5218\u731b
p1564
sVIsOwner
p1565
I0
sVSex
p1566
I1
sVStarFriend
p1567
I0
sVHideInputBarFlag
p1568
I0
sVChatRoomId
p1569
I0
sVEncryChatRoomId
p1570
g43
sVAttrStatus
p1571
I234021
sVStatues
p1572
I0
stp1573
Rp1574
I1
bag25
(g29
g30
(dp1575
VUserName
p1576
V@a91a699fb8fef5b76cc2b511ccfffbc2
p1577
sVCity
p1578
V\u5b89\u5e86
p1579
sVSnsFlag
p1580
I0
sVDisplayName
p1581
g43
sVUniFriend
p1582
I0
sVMemberCount
p1583
I0
sVOwnerUin
p1584
I0
sVMemberList
p1585
g41
sVAlias
p1586
g43
sVPYQuanPin
p1587
Vxiaoqiang
p1588
sVSignature
p1589
V\u5929\u884c\u5065 \u541b\u5b50\u4ee5\u81ea\u5f3a\u4e0d\u606f
p1590
sVRemarkPYInitial
p1591
g43
sVContactFlag
p1592
I259
sVUin
p1593
I0
sVNickName
p1594
V\u5c0f\u5f3a
p1595
sVAppAccountFlag
p1596
I0
sVVerifyFlag
p1597
I0
sVRemarkPYQuanPin
p1598
g43
sVHeadImgUrl
p1599
V/cgi-bin/mmwebwx-bin/webwxgeticon?seq=638181799&username=@a91a699fb8fef5b76cc2b511ccfffbc2&skey=@crypt_b93ef9c0_3d36781bdd471e93df89b74ee29383b1
p1600
sVKeyWord
p1601
Vqia
p1602
sVProvince
p1603
V\u5b89\u5fbd
p1604
sVPYInitial
p1605
VXQ
p1606
sVRemarkName
p1607
g43
sVIsOwner
p1608
I0
sVSex
p1609
I1
sVStarFriend
p1610
I0
sVHideInputBarFlag
p1611
I0
sVChatRoomId
p1612
I0
sVEncryChatRoomId
p1613
g43
sVAttrStatus
p1614
I4199
sVStatues
p1615
I0
stp1616
Rp1617
I1
bag25
(g29
g30
(dp1618
VUserName
p1619
V@3b4b216b56dc67e97eef43c6f893fcf01df4062b2742b8e5583d69a8a27d2c1a
p1620
sVCity
p1621
V\u8386\u7530
p1622
sVSnsFlag
p1623
I1
sVDisplayName
p1624
g43
sVUniFriend
p1625
I0
sVMemberCount
p1626
I0
sVOwnerUin
p1627
I0
sVMemberList
p1628
g41
sVAlias
p1629
g43
sVPYQuanPin
p1630
Vputianzhongduanxieyechengzhaodaili
p1631
sVSignature
p1632
V\u62db\u5b9e\u529b\u4ee3\u7406\uff0c\u522b\u95ee\u4ec0\u4e48\u6211\u662f\u4e0d\u662f\u4e00\u624b\u8d27\u6e90\uff0c\u81ea\u5df1\u770b\u4ef7\u683c\u5bf9\u6bd4\u5c31\u77e5\u9053\u4e86
p1633
sVRemarkPYInitial
p1634
g43
sVContactFlag
p1635
I65795
sVUin
p1636
I0
sVNickName
p1637
V\u8386\u7530\u7ec8\u7aef\u978b\u4e1a\u3010\u8bda\u62db\u4ee3\u7406\u3011
p1638
sVAppAccountFlag
p1639
I0
sVVerifyFlag
p1640
I0
sVRemarkPYQuanPin
p1641
g43
sVHeadImgUrl
p1642
V/cgi-bin/mmwebwx-bin/webwxgeticon?seq=665614219&username=@3b4b216b56dc67e97eef43c6f893fcf01df4062b2742b8e5583d69a8a27d2c1a&skey=@crypt_b93ef9c0_3d36781bdd471e93df89b74ee29383b1
p1643
sVKeyWord
p1644
g43
sVProvince
p1645
V\u798f\u5efa
p1646
sVPYInitial
p1647
VPTZDXYCZDL
p1648
sVRemarkName
p1649
g43
sVIsOwner
p1650
I0
sVSex
p1651
I1
sVStarFriend
p1652
I0
sVHideInputBarFlag
p1653
I0
sVChatRoomId
p1654
I0
sVEncryChatRoomId
p1655
g43
sVAttrStatus
p1656
I104485
sVStatues
p1657
I0
stp1658
Rp1659
I1
bag25
(g29
g30
(dp1660
VUserName
p1661
V@c3533e1d8b9956a3f288c3fec34bc0231de83de1419b1a1e3e66e3907c531cfa
p1662
sVCity
p1663
V\u5b5d\u611f
p1664
sVSnsFlag
p1665
I17
sVDisplayName
p1666
g43
sVUniFriend
p1667
I0
sVMemberCount
p1668
I0
sVOwnerUin
p1669
I0
sVMemberList
p1670
g41
sVAlias
p1671
g43
sVPYQuanPin
p1672
Vxunrendezengxiaojian
p1673
sVSignature
p1674
V\u6211\u4ee5\u540e\u4e00\u5b9a\u8981\u517b\u6761\u67f4\u72ac
p1675
sVRemarkPYInitial
p1676
g43
sVContactFlag
p1677
I257
sVUin
p1678
I0
sVNickName
p1679
V\u5bfb\u4eba\u7684\u66fe\u5c0f\u8d31
p1680
sVAppAccountFlag
p1681
I0
sVVerifyFlag
p1682
I0
sVRemarkPYQuanPin
p1683
g43
sVHeadImgUrl
p1684
V/cgi-bin/mmwebwx-bin/webwxgeticon?seq=649997861&username=@c3533e1d8b9956a3f288c3fec34bc0231de83de1419b1a1e3e66e3907c531cfa&skey=@crypt_b93ef9c0_3d36781bdd471e93df89b74ee29383b1
p1685
sVKeyWord
p1686
g43
sVProvince
p1687
V\u6e56\u5317
p1688
sVPYInitial
p1689
VXRDZXJ
p1690
sVRemarkName
p1691
g43
sVIsOwner
p1692
I0
sVSex
p1693
I1
sVStarFriend
p1694
I0
sVHideInputBarFlag
p1695
I0
sVChatRoomId
p1696
I0
sVEncryChatRoomId
p1697
g43
sVAttrStatus
p1698
I102437
sVStatues
p1699
I0
stp1700
Rp1701
I1
bag25
(g29
g30
(dp1702
VUserName
p1703
V@a39cddeebe5c987dd576170d7e728d4032670db38fca4fdfedcceae499820c4e
p1704
sVCity
p1705
g43
sVSnsFlag
p1706
I1
sVDisplayName
p1707
g43
sVUniFriend
p1708
I0
sVMemberCount
p1709
I0
sVOwnerUin
p1710
I0
sVMemberList
p1711
g41
sVAlias
p1712
g43
sVPYQuanPin
p1713
VFelIspanclassemojiemoji1f353span
p1714
sVSignature
p1715
g43
sVRemarkPYInitial
p1716
g43
sVContactFlag
p1717
I259
sVUin
p1718
I0
sVNickName
p1719
VFelI\U0001f353
p1720
sVAppAccountFlag
p1721
I0
sVVerifyFlag
p1722
I0
sVRemarkPYQuanPin
p1723
g43
sVHeadImgUrl
p1724
V/cgi-bin/mmwebwx-bin/webwxgeticon?seq=665619194&username=@a39cddeebe5c987dd576170d7e728d4032670db38fca4fdfedcceae499820c4e&skey=@crypt_b93ef9c0_3d36781bdd471e93df89b74ee29383b1
p1725
sVKeyWord
p1726
g43
sVProvince
p1727
g43
sVPYInitial
p1728
VFELISPANCLASSEMOJIEMOJI1F353SPAN
p1729
sVRemarkName
p1730
g43
sVIsOwner
p1731
I0
sVSex
p1732
I0
sVStarFriend
p1733
I0
sVHideInputBarFlag
p1734
I0
sVChatRoomId
p1735
I0
sVEncryChatRoomId
p1736
g43
sVAttrStatus
p1737
I233509
sVStatues
p1738
I0
stp1739
Rp1740
I1
bag25
(g29
g30
(dp1741
VUserName
p1742
V@145be9903ccbc4595a35b6d4483bf193c97c243688e7db4ecdf3ec213adcd21c
p1743
sVCity
p1744
V\u592a\u539f
p1745
sVSnsFlag
p1746
I17
sVDisplayName
p1747
g43
sVUniFriend
p1748
I0
sVMemberCount
p1749
I0
sVOwnerUin
p1750
I0
sVMemberList
p1751
g41
sVAlias
p1752
g43
sVPYQuanPin
p1753
Vgaosheng
p1754
sVSignature
p1755
g43
sVRemarkPYInitial
p1756
VGS
p1757
sVContactFlag
p1758
I257
sVUin
p1759
I0
sVNickName
p1760
V\u9ad8\u5347
p1761
sVAppAccountFlag
p1762
I0
sVVerifyFlag
p1763
I0
sVRemarkPYQuanPin
p1764
Vgaosheng
p1765
sVHeadImgUrl
p1766
V/cgi-bin/mmwebwx-bin/webwxgeticon?seq=649998261&username=@145be9903ccbc4595a35b6d4483bf193c97c243688e7db4ecdf3ec213adcd21c&skey=@crypt_b93ef9c0_3d36781bdd471e93df89b74ee29383b1
p1767
sVKeyWord
p1768
g43
sVProvince
p1769
V\u5c71\u897f
p1770
sVPYInitial
p1771
VGS
p1772
sVRemarkName
p1773
V\u9ad8\u5347
p1774
sVIsOwner
p1775
I0
sVSex
p1776
I1
sVStarFriend
p1777
I0
sVHideInputBarFlag
p1778
I0
sVChatRoomId
p1779
I0
sVEncryChatRoomId
p1780
g43
sVAttrStatus
p1781
I102501
sVStatues
p1782
I0
stp1783
Rp1784
I1
bag25
(g29
g30
(dp1785
VUserName
p1786
V@82e0dace2374ad2a3705f7a64dfa231883b40c264466ff58ca913e8b56c03116
p1787
sVCity
p1788
g43
sVSnsFlag
p1789
I1
sVDisplayName
p1790
g43
sVUniFriend
p1791
I0
sVMemberCount
p1792
I0
sVOwnerUin
p1793
I0
sVMemberList
p1794
g41
sVAlias
p1795
g43
sVPYQuanPin
p1796
Vchenxi
p1797
sVSignature
p1798
Vstrive for the best\uff0cprepare  for  the worst
p1799
sVRemarkPYInitial
p1800
VGJH
p1801
sVContactFlag
p1802
I65793
sVUin
p1803
I0
sVNickName
p1804
V\u6668\u66e6
p1805
sVAppAccountFlag
p1806
I0
sVVerifyFlag
p1807
I0
sVRemarkPYQuanPin
p1808
Vguojianhua
p1809
sVHeadImgUrl
p1810
V/cgi-bin/mmwebwx-bin/webwxgeticon?seq=663844527&username=@82e0dace2374ad2a3705f7a64dfa231883b40c264466ff58ca913e8b56c03116&skey=@crypt_b93ef9c0_3d36781bdd471e93df89b74ee29383b1
p1811
sVKeyWord
p1812
g43
sVProvince
p1813
g43
sVPYInitial
p1814
VCX
p1815
sVRemarkName
p1816
V\u90ed\u5efa\u534e
p1817
sVIsOwner
p1818
I0
sVSex
p1819
I2
sVStarFriend
p1820
I0
sVHideInputBarFlag
p1821
I0
sVChatRoomId
p1822
I0
sVEncryChatRoomId
p1823
g43
sVAttrStatus
p1824
I6245
sVStatues
p1825
I0
stp1826
Rp1827
I1
bag25
(g29
g30
(dp1828
VUserName
p1829
V@0ba74cf0f8e1518f236e3feffb5c020e
p1830
sVCity
p1831
V\u6b66\u6c49
p1832
sVSnsFlag
p1833
I17
sVDisplayName
p1834
g43
sVUniFriend
p1835
I0
sVMemberCount
p1836
I0
sVOwnerUin
p1837
I0
sVMemberList
p1838
g41
sVAlias
p1839
g43
sVPYQuanPin
p1840
Vxinger
p1841
sVSignature
p1842
V^O^\u505a\u7b80\u5355\u5feb\u4e50\u7684\u81ea\u5df1^O^
p1843
sVRemarkPYInitial
p1844
VXINGER125
p1845
sVContactFlag
p1846
I1
sVUin
p1847
I0
sVNickName
p1848
Vxinger
p1849
sVAppAccountFlag
p1850
I0
sVVerifyFlag
p1851
I0
sVRemarkPYQuanPin
p1852
Vxinger125
p1853
sVHeadImgUrl
p1854
V/cgi-bin/mmwebwx-bin/webwxgeticon?seq=649997223&username=@0ba74cf0f8e1518f236e3feffb5c020e&skey=@crypt_b93ef9c0_3d36781bdd471e93df89b74ee29383b1
p1855
sVKeyWord
p1856
Vxin
p1857
sVProvince
p1858
V\u6e56\u5317
p1859
sVPYInitial
p1860
VXINGER
p1861
sVRemarkName
p1862
Vxinger\u20141.25
p1863
sVIsOwner
p1864
I0
sVSex
p1865
I2
sVStarFriend
p1866
I0
sVHideInputBarFlag
p1867
I0
sVChatRoomId
p1868
I0
sVEncryChatRoomId
p1869
g43
sVAttrStatus
p1870
I103525
sVStatues
p1871
I0
stp1872
Rp1873
I1
bag25
(g29
g30
(dp1874
VUserName
p1875
V@5be288a62a5a3acfd739406a086b1ec54348b097910ebd5c313070d20b83b0e2
p1876
sVCity
p1877
V\u6b66\u6c49
p1878
sVSnsFlag
p1879
I49
sVDisplayName
p1880
g43
sVUniFriend
p1881
I0
sVMemberCount
p1882
I0
sVOwnerUin
p1883
I0
sVMemberList
p1884
g41
sVAlias
p1885
g43
sVPYQuanPin
p1886
VBearspanclassemojiemoji1f43bspan
p1887
sVSignature
p1888
V\u5fc3\u4e2d\u81ea\u6709\u5b9a\u6d77\u9488
p1889
sVRemarkPYInitial
p1890
VXTT
p1891
sVContactFlag
p1892
I65539
sVUin
p1893
I0
sVNickName
p1894
VBear\U0001f43b
p1895
sVAppAccountFlag
p1896
I0
sVVerifyFlag
p1897
I0
sVRemarkPYQuanPin
p1898
Vxiongtiantian
p1899
sVHeadImgUrl
p1900
V/cgi-bin/mmwebwx-bin/webwxgeticon?seq=667602308&username=@5be288a62a5a3acfd739406a086b1ec54348b097910ebd5c313070d20b83b0e2&skey=@crypt_b93ef9c0_3d36781bdd471e93df89b74ee29383b1
p1901
sVKeyWord
p1902
g43
sVProvince
p1903
V\u6e56\u5317
p1904
sVPYInitial
p1905
VBEARSPANCLASSEMOJIEMOJI1F43BSPAN
p1906
sVRemarkName
p1907
V\u718a\u751c\u751c
p1908
sVIsOwner
p1909
I0
sVSex
p1910
I2
sVStarFriend
p1911
I0
sVHideInputBarFlag
p1912
I0
sVChatRoomId
p1913
I0
sVEncryChatRoomId
p1914
g43
sVAttrStatus
p1915
I102439
sVStatues
p1916
I0
stp1917
Rp1918
I1
batp1919
Rp1920
I1
bsS'chatroomList'
p1921
g25
(g26
g27
(lp1922
g25
(citchat.storage.templates
Chatroom
p1923
g30
(dp1924
VUserName
p1925
V@@6062511d7c3c4664b032e8505025fce1f6e4ca3d0650636855a36b5ae9377554
p1926
sVCity
p1927
g43
sVDisplayName
p1928
g43
sVUniFriend
p1929
I0
sS'Self'
p1930
g25
(g29
g30
(dp1931
g32
g22
sg33
g34
sg35
g34
sg36
I0
sg37
I0
sg38
g25
(g26
g27
(lp1932
tp1933
Rp1934
I1
bsg42
g43
sg44
g43
sg45
L2969247815L
sg46
I0
sg47
I0
sg48
g34
sg49
g34
sg50
g43
sg51
g43
sg52
I0
sg53
I0
sg54
I1
sg55
g34
sg56
I0
sg57
I17
sg58
I0
sg59
I0
sg60
g34
sg61
g62
sg63
I0
sg64
g65
sg66
g43
sg67
g68
sg69
I1
sg70
I0
sg71
I0
stp1935
Rp1936
I1
bsVMemberList
p1937
g25
(g26
g27
(lp1938
tp1939
Rp1940
I1
bsVPYQuanPin
p1941
g43
sVRemarkPYInitial
p1942
g43
sVSex
p1943
I0
sVAppAccountFlag
p1944
I0
sVVerifyFlag
p1945
I0
sVProvince
p1946
g43
sVKeyWord
p1947
g43
sVRemarkName
p1948
g43
sVPYInitial
p1949
g43
sVIsOwner
p1950
I1
sVChatRoomId
p1951
I0
sVHideInputBarFlag
p1952
I0
sVEncryChatRoomId
p1953
g43
sVAttrStatus
p1954
I0
sVSnsFlag
p1955
I0
sVMemberCount
p1956
I4
sVOwnerUin
p1957
I0
sVAlias
p1958
g43
sS'IsAdmin'
p1959
NsVSignature
p1960
g43
sVContactFlag
p1961
I0
sVNickName
p1962
V\u5406\u4fe9\u5406
p1963
sVRemarkPYQuanPin
p1964
g43
sVHeadImgUrl
p1965
V/cgi-bin/mmwebwx-bin/webwxgetheadimg?seq=0&username=@@6062511d7c3c4664b032e8505025fce1f6e4ca3d0650636855a36b5ae9377554&skey=@crypt_b93ef9c0_3d36781bdd471e93df89b74ee29383b1
p1966
sVUin
p1967
I0
sVStarFriend
p1968
I0
sVStatues
p1969
I0
stp1970
Rp1971
I1
bag25
(g1923
g30
(dp1972
VUserName
p1973
V@@ded13e1151a6560e1d956df1785d5b1c5fb9d9fdb18b92c7c078c1aeed5f1bc3
p1974
sVCity
p1975
g43
sVDisplayName
p1976
g43
sVUniFriend
p1977
I0
sg1930
g25
(g29
g30
(dp1978
g32
g22
sg33
g34
sg35
g34
sg36
I0
sg37
I0
sg38
g25
(g26
g27
(lp1979
tp1980
Rp1981
I1
bsg42
g43
sg44
g43
sg45
L2969247815L
sg46
I0
sg47
I0
sg48
g34
sg49
g34
sg50
g43
sg51
g43
sg52
I0
sg53
I0
sg54
I1
sg55
g34
sg56
I0
sg57
I17
sg58
I0
sg59
I0
sg60
g34
sg61
g62
sg63
I0
sg64
g65
sg66
g43
sg67
g68
sg69
I1
sg70
I0
sg71
I0
stp1982
Rp1983
I1
bsVMemberList
p1984
g25
(g26
g27
(lp1985
tp1986
Rp1987
I1
bsVPYQuanPin
p1988
VFamily
p1989
sVRemarkPYInitial
p1990
g43
sVSex
p1991
I0
sVAppAccountFlag
p1992
I0
sVVerifyFlag
p1993
I0
sVProvince
p1994
g43
sVKeyWord
p1995
g43
sVRemarkName
p1996
g43
sVPYInitial
p1997
VFAMILY
p1998
sVIsOwner
p1999
I1
sVChatRoomId
p2000
I0
sVHideInputBarFlag
p2001
I0
sVEncryChatRoomId
p2002
g43
sVAttrStatus
p2003
I0
sVSnsFlag
p2004
I0
sVMemberCount
p2005
I0
sVOwnerUin
p2006
I0
sVAlias
p2007
g43
sg1959
NsVSignature
p2008
g43
sVContactFlag
p2009
I3
sVNickName
p2010
VFamily
p2011
sVRemarkPYQuanPin
p2012
g43
sVHeadImgUrl
p2013
V/cgi-bin/mmwebwx-bin/webwxgetheadimg?seq=663846411&username=@@ded13e1151a6560e1d956df1785d5b1c5fb9d9fdb18b92c7c078c1aeed5f1bc3&skey=@crypt_b93ef9c0_3d36781bdd471e93df89b74ee29383b1
p2014
sVUin
p2015
I0
sVStarFriend
p2016
I0
sVStatues
p2017
I1
stp2018
Rp2019
I1
batp2020
Rp2021
I1
bsS'nickName'
p2022
g65
sS'mpList'
p2023
g25
(g26
g27
(lp2024
g25
(citchat.storage.templates
MassivePlatform
p2025
g30
(dp2026
VUserName
p2027
V@a192a87f40f245e414555a6a5cb6db4e
p2028
sVCity
p2029
V\u6df1\u5733
p2030
sVSnsFlag
p2031
I0
sVDisplayName
p2032
g43
sVUniFriend
p2033
I0
sVMemberCount
p2034
I0
sVOwnerUin
p2035
I0
sVMemberList
p2036
g41
sVAlias
p2037
g43
sVPYQuanPin
p2038
Vweixinhongbao
p2039
sVSignature
p2040
V\u5fae\u4fe1\u7ea2\u5305\u5b98\u65b9\u5e73\u53f0\uff0c\u4e3a\u4f60\u63d0\u4f9b\u5feb\u6377\u5b89\u5168\u597d\u73a9\u7684\u53d1\u7ea2\u5305\u670d\u52a1
p2041
sVRemarkPYInitial
p2042
g43
sVContactFlag
p2043
I3
sVUin
p2044
I0
sVNickName
p2045
V\u5fae\u4fe1\u7ea2\u5305
p2046
sVAppAccountFlag
p2047
I0
sVVerifyFlag
p2048
I24
sVRemarkPYQuanPin
p2049
g43
sVHeadImgUrl
p2050
V/cgi-bin/mmwebwx-bin/webwxgeticon?seq=623670126&username=@a192a87f40f245e414555a6a5cb6db4e&skey=@crypt_b93ef9c0_3d36781bdd471e93df89b74ee29383b1
p2051
sVKeyWord
p2052
Vgh_
p2053
sVProvince
p2054
V\u5e7f\u4e1c
p2055
sVPYInitial
p2056
VWXHB
p2057
sVRemarkName
p2058
g43
sVIsOwner
p2059
I0
sVSex
p2060
I0
sVStarFriend
p2061
I0
sVHideInputBarFlag
p2062
I0
sVChatRoomId
p2063
I0
sVEncryChatRoomId
p2064
g43
sVAttrStatus
p2065
I0
sVStatues
p2066
I0
stp2067
Rp2068
I1
bag25
(g2025
g30
(dp2069
VUserName
p2070
V@ccca08b89f4cbd8014858fdbebd05775
p2071
sVCity
p2072
V\u5e7f\u5dde
p2073
sVSnsFlag
p2074
I0
sVDisplayName
p2075
g43
sVUniFriend
p2076
I0
sVMemberCount
p2077
I0
sVOwnerUin
p2078
I0
sVMemberList
p2079
g41
sVAlias
p2080
g43
sVPYQuanPin
p2081
Vweixinkabao
p2082
sVSignature
p2083
V\u5e2e\u52a9\u89e3\u51b3\u4f7f\u7528\u5fae\u4fe1\u5361\u5238\u8fc7\u7a0b\u4e2d\u9047\u5230\u7684\u95ee\u9898\uff0c\u6536\u96c6\u5173\u4e8e\u5fae\u4fe1\u5361\u5238\u7684\u53cd\u9988\u5efa\u8bae\u3002
p2084
sVRemarkPYInitial
p2085
g43
sVContactFlag
p2086
I1
sVUin
p2087
I0
sVNickName
p2088
V\u5fae\u4fe1\u5361\u5305
p2089
sVAppAccountFlag
p2090
I0
sVVerifyFlag
p2091
I24
sVRemarkPYQuanPin
p2092
g43
sVHeadImgUrl
p2093
V/cgi-bin/mmwebwx-bin/webwxgeticon?seq=625720843&username=@ccca08b89f4cbd8014858fdbebd05775&skey=@crypt_b93ef9c0_3d36781bdd471e93df89b74ee29383b1
p2094
sVKeyWord
p2095
Vgh_
p2096
sVProvince
p2097
V\u5e7f\u4e1c
p2098
sVPYInitial
p2099
VWXKB
p2100
sVRemarkName
p2101
g43
sVIsOwner
p2102
I0
sVSex
p2103
I0
sVStarFriend
p2104
I0
sVHideInputBarFlag
p2105
I0
sVChatRoomId
p2106
I0
sVEncryChatRoomId
p2107
g43
sVAttrStatus
p2108
I0
sVStatues
p2109
I0
stp2110
Rp2111
I1
bag25
(g2025
g30
(dp2112
VUserName
p2113
V@818797e530ad90ef7c0257737bd44408
p2114
sVCity
p2115
g43
sVSnsFlag
p2116
I0
sVDisplayName
p2117
g43
sVUniFriend
p2118
I0
sVMemberCount
p2119
I0
sVOwnerUin
p2120
I0
sVMemberList
p2121
g41
sVAlias
p2122
g43
sVPYQuanPin
p2123
Vweixinzhifu
p2124
sVSignature
p2125
V\u5e2e\u52a9\u89e3\u51b3\u5fae\u4fe1\u652f\u4ed8\u4e2d\u9047\u5230\u7684\u56f0\u96be\uff0c\u6536\u96c6\u5173\u4e8e\u5fae\u4fe1\u652f\u4ed8\u7684\u5efa\u8bae\u53cd\u9988\u3002
p2126
sVRemarkPYInitial
p2127
g43
sVContactFlag
p2128
I1
sVUin
p2129
I0
sVNickName
p2130
V\u5fae\u4fe1\u652f\u4ed8
p2131
sVAppAccountFlag
p2132
I0
sVVerifyFlag
p2133
I24
sVRemarkPYQuanPin
p2134
g43
sVHeadImgUrl
p2135
V/cgi-bin/mmwebwx-bin/webwxgeticon?seq=623670124&username=@818797e530ad90ef7c0257737bd44408&skey=@crypt_b93ef9c0_3d36781bdd471e93df89b74ee29383b1
p2136
sVKeyWord
p2137
Vgh_
p2138
sVProvince
p2139
V\u5e7f\u4e1c
p2140
sVPYInitial
p2141
VWXZF
p2142
sVRemarkName
p2143
g43
sVIsOwner
p2144
I0
sVSex
p2145
I0
sVStarFriend
p2146
I0
sVHideInputBarFlag
p2147
I0
sVChatRoomId
p2148
I0
sVEncryChatRoomId
p2149
g43
sVAttrStatus
p2150
I0
sVStatues
p2151
I0
stp2152
Rp2153
I1
bag25
(g2025
g30
(dp2154
VUserName
p2155
V@ed7cf1e7aadb710bf845ec84bdd06ba1
p2156
sVCity
p2157
V\u6df1\u5733
p2158
sVSnsFlag
p2159
I0
sVDisplayName
p2160
g43
sVUniFriend
p2161
I0
sVMemberCount
p2162
I0
sVOwnerUin
p2163
I0
sVMemberList
p2164
g41
sVAlias
p2165
g43
sVPYQuanPin
p2166
VjingdongJDCOM
p2167
sVSignature
p2168
V\u5173\u6ce8\u4eac\u4e1c\u670d\u52a1\u53f7\uff0c\u7b2c\u4e00\u65f6\u95f4\u83b7\u53d6\u5546\u54c1\u8ba2\u5355\u7269\u6d41\u63d0\u9192\u7b49\u670d\u52a1
p2169
sVRemarkPYInitial
p2170
g43
sVContactFlag
p2171
I1
sVUin
p2172
I0
sVNickName
p2173
V\u4eac\u4e1cJD.COM
p2174
sVAppAccountFlag
p2175
I0
sVVerifyFlag
p2176
I29
sVRemarkPYQuanPin
p2177
g43
sVHeadImgUrl
p2178
V/cgi-bin/mmwebwx-bin/webwxgeticon?seq=638170173&username=@ed7cf1e7aadb710bf845ec84bdd06ba1&skey=@crypt_b93ef9c0_3d36781bdd471e93df89b74ee29383b1
p2179
sVKeyWord
p2180
Vqqw
p2181
sVProvince
p2182
V\u5e7f\u4e1c
p2183
sVPYInitial
p2184
VJDJDCOM
p2185
sVRemarkName
p2186
g43
sVIsOwner
p2187
I0
sVSex
p2188
I0
sVStarFriend
p2189
I0
sVHideInputBarFlag
p2190
I0
sVChatRoomId
p2191
I0
sVEncryChatRoomId
p2192
g43
sVAttrStatus
p2193
I131073
sVStatues
p2194
I0
stp2195
Rp2196
I1
bag25
(g2025
g30
(dp2197
VUserName
p2198
V@07af22e5e76019224b55e01a062cc336
p2199
sVCity
p2200
V\u6b66\u6c49
p2201
sVSnsFlag
p2202
I0
sVDisplayName
p2203
g43
sVUniFriend
p2204
I0
sVMemberCount
p2205
I0
sVOwnerUin
p2206
I0
sVMemberList
p2207
g41
sVAlias
p2208
g43
sVPYQuanPin
p2209
Vhubeiliantong
p2210
sVSignature
p2211
V\u63d0\u4f9b\u968f\u8eab\u670d\u52a1\uff0c\u65b9\u4fbf\u60a8\u67e5\u8be2\u8bdd\u8d39\u3001\u529e\u7406\u4e1a\u52a1\u3001\u4ea4\u8d39\u5145\u503c\u3001\u53c2\u52a0\u6d3b\u52a8\u3002
p2212
sVRemarkPYInitial
p2213
g43
sVContactFlag
p2214
I1
sVUin
p2215
I0
sVNickName
p2216
V\u6e56\u5317\u8054\u901a
p2217
sVAppAccountFlag
p2218
I0
sVVerifyFlag
p2219
I24
sVRemarkPYQuanPin
p2220
g43
sVHeadImgUrl
p2221
V/cgi-bin/mmwebwx-bin/webwxgeticon?seq=649966427&username=@07af22e5e76019224b55e01a062cc336&skey=@crypt_b93ef9c0_3d36781bdd471e93df89b74ee29383b1
p2222
sVKeyWord
p2223
Vgh_
p2224
sVProvince
p2225
V\u6e56\u5317
p2226
sVPYInitial
p2227
VHBLT
p2228
sVRemarkName
p2229
g43
sVIsOwner
p2230
I0
sVSex
p2231
I0
sVStarFriend
p2232
I0
sVHideInputBarFlag
p2233
I0
sVChatRoomId
p2234
I0
sVEncryChatRoomId
p2235
g43
sVAttrStatus
p2236
I0
sVStatues
p2237
I0
stp2238
Rp2239
I1
bag25
(g2025
g30
(dp2240
VUserName
p2241
V@55aa1fa6431bebd4054092e5c5e31857
p2242
sVCity
p2243
V\u6df1\u5733
p2244
sVSnsFlag
p2245
I0
sVDisplayName
p2246
g43
sVUniFriend
p2247
I0
sVMemberCount
p2248
I0
sVOwnerUin
p2249
I0
sVMemberList
p2250
g41
sVAlias
p2251
g43
sVPYQuanPin
p2252
Vshunfengsuyun
p2253
sVSignature
p2254
V\u6700\u4fbf\u6377\u7684\u987a\u4e30\u901f\u8fd0\u81ea\u52a9\u670d\u52a1\u5e73\u53f0\u3002\u4e0b\u5355\u5bc4\u4ef6\uff0c \u53ca\u65f6\u8ffd\u8e2a\u5feb\u4ef6\u72b6\u6001\uff0c\u4e3b\u52a8\u63a8\u9001\u8def\u7531\u4fe1\u606f\uff0c\u540c\u65f6\u8ba2\u5355\u7ba1\u7406\u3001\u5730\u5740\u7c3f\u7ba1\u7406\u8ba9\u60a8\u653e\u5fc3\u3001\u8212\u5fc3\u3002\u6211\u4eec\u4e00\u76f4\u5728\u52aa\u529b\uff01
p2255
sVRemarkPYInitial
p2256
g43
sVContactFlag
p2257
I1
sVUin
p2258
I0
sVNickName
p2259
V\u987a\u4e30\u901f\u8fd0
p2260
sVAppAccountFlag
p2261
I0
sVVerifyFlag
p2262
I24
sVRemarkPYQuanPin
p2263
g43
sVHeadImgUrl
p2264
V/cgi-bin/mmwebwx-bin/webwxgeticon?seq=631430492&username=@55aa1fa6431bebd4054092e5c5e31857&skey=@crypt_b93ef9c0_3d36781bdd471e93df89b74ee29383b1
p2265
sVKeyWord
p2266
Vgh_
p2267
sVProvince
p2268
V\u5e7f\u4e1c
p2269
sVPYInitial
p2270
VSFSY
p2271
sVRemarkName
p2272
g43
sVIsOwner
p2273
I0
sVSex
p2274
I0
sVStarFriend
p2275
I0
sVHideInputBarFlag
p2276
I0
sVChatRoomId
p2277
I0
sVEncryChatRoomId
p2278
g43
sVAttrStatus
p2279
I0
sVStatues
p2280
I0
stp2281
Rp2282
I1
bag25
(g2025
g30
(dp2283
VUserName
p2284
V@e005c9d5dde49b31afe537f64dbaa7cb
p2285
sVCity
p2286
V\u671d\u9633
p2287
sVSnsFlag
p2288
I0
sVDisplayName
p2289
g43
sVUniFriend
p2290
I0
sVMemberCount
p2291
I0
sVOwnerUin
p2292
I0
sVMemberList
p2293
g41
sVAlias
p2294
g43
sVPYQuanPin
p2295
Vjingdongzhifu
p2296
sVSignature
p2297
V\u4e3a\u60a8\u63d0\u4f9b\u652f\u4ed8\u8d26\u5355\u67e5\u8be2\uff1b\u7b14\u7b14\u4ea4\u6613\uff0c\u5b9e\u65f6\u63d0\u9192\uff1b\u767d\u6761\u63d0\u989d\u8fd8\u6b3e\uff1b\u5c0f\u91d1\u5e93\u8f6c\u5165\u8f6c\u51fa\uff1b\u5929\u5929\u8585\u7f8a\u6bdb\u7b49\u8bf8\u591a\u5b9e\u7528\u529f\u80fd\uff01\u6709\u5173\u4eac\u4e1c\u652f\u4ed8\u7684\u5efa\u8bae\u548c\u4f7f\u7528\u95ee\u9898\u4e5f\u53ef\u5b9e\u65f6\u53cd\u9988\u54e6~
p2298
sVRemarkPYInitial
p2299
g43
sVContactFlag
p2300
I1
sVUin
p2301
I0
sVNickName
p2302
V\u4eac\u4e1c\u652f\u4ed8
p2303
sVAppAccountFlag
p2304
I0
sVVerifyFlag
p2305
I24
sVRemarkPYQuanPin
p2306
g43
sVHeadImgUrl
p2307
V/cgi-bin/mmwebwx-bin/webwxgeticon?seq=649989707&username=@e005c9d5dde49b31afe537f64dbaa7cb&skey=@crypt_b93ef9c0_3d36781bdd471e93df89b74ee29383b1
p2308
sVKeyWord
p2309
Vgh_
p2310
sVProvince
p2311
V\u5317\u4eac
p2312
sVPYInitial
p2313
VJDZF
p2314
sVRemarkName
p2315
g43
sVIsOwner
p2316
I0
sVSex
p2317
I0
sVStarFriend
p2318
I0
sVHideInputBarFlag
p2319
I0
sVChatRoomId
p2320
I0
sVEncryChatRoomId
p2321
g43
sVAttrStatus
p2322
I0
sVStatues
p2323
I0
stp2324
Rp2325
I1
bag25
(g2025
g30
(dp2326
VUserName
p2327
V@92546d5187a88e5563b70c59f4c591ec
p2328
sVCity
p2329
V\u671d\u9633
p2330
sVSnsFlag
p2331
I0
sVDisplayName
p2332
g43
sVUniFriend
p2333
I0
sVMemberCount
p2334
I0
sVOwnerUin
p2335
I0
sVMemberList
p2336
g41
sVAlias
p2337
g43
sVPYQuanPin
p2338
VGitChat
p2339
sVSignature
p2340
V\u5728 GitChat \u5206\u4eab\u77e5\u8bc6\uff0c\u7528\u77e5\u8bc6\u6539\u53d8\u4e16\u754c\uff01GitBook.cn
p2341
sVRemarkPYInitial
p2342
g43
sVContactFlag
p2343
I1
sVUin
p2344
I0
sVNickName
p2345
VGitChat
p2346
sVAppAccountFlag
p2347
I0
sVVerifyFlag
p2348
I24
sVRemarkPYQuanPin
p2349
g43
sVHeadImgUrl
p2350
V/cgi-bin/mmwebwx-bin/webwxgeticon?seq=665625412&username=@92546d5187a88e5563b70c59f4c591ec&skey=@crypt_b93ef9c0_3d36781bdd471e93df89b74ee29383b1
p2351
sVKeyWord
p2352
Vgh_
p2353
sVProvince
p2354
V\u5317\u4eac
p2355
sVPYInitial
p2356
VGITCHAT
p2357
sVRemarkName
p2358
g43
sVIsOwner
p2359
I0
sVSex
p2360
I0
sVStarFriend
p2361
I0
sVHideInputBarFlag
p2362
I0
sVChatRoomId
p2363
I0
sVEncryChatRoomId
p2364
g43
sVAttrStatus
p2365
I0
sVStatues
p2366
I0
stp2367
Rp2368
I1
bag25
(g2025
g30
(dp2369
VUserName
p2370
V@31203eb6d37e3839a7144d36d2ab282e
p2371
sVCity
p2372
V\u666e\u9640
p2373
sVSnsFlag
p2374
I0
sVDisplayName
p2375
g43
sVUniFriend
p2376
I0
sVMemberCount
p2377
I0
sVOwnerUin
p2378
I0
sVMemberList
p2379
g41
sVAlias
p2380
g43
sVPYQuanPin
p2381
Vshouqianbafulishe
p2382
sVSignature
p2383
V\u5427\u54e5\u7684\u5206\u4eab\u5f0f\u7535\u5546\u5e73\u53f0\uff0c\u4e3a\u5343\u4e07\u7c89\u4e1d\u5206\u4eab\u63a8\u8350\u4f18\u8d28\u597d\u7269\u3002\u9001\u793c\uff0c\u65b9\u4fbf\u5feb\u6377\uff1b\u81ea\u7528\uff0c\u7cbe\u7f8e\u8212\u9002\u3002\u4e00\u952e\u4e0b\u5355\uff0c\u79ef\u5206\u8d2d\u4e70\u66f4\u5212\u7b97\u3002
p2384
sVRemarkPYInitial
p2385
g43
sVContactFlag
p2386
I3
sVUin
p2387
I0
sVNickName
p2388
V\u6536\u94b1\u5427\u798f\u5229\u793e
p2389
sVAppAccountFlag
p2390
I0
sVVerifyFlag
p2391
I24
sVRemarkPYQuanPin
p2392
g43
sVHeadImgUrl
p2393
V/cgi-bin/mmwebwx-bin/webwxgeticon?seq=665626890&username=@31203eb6d37e3839a7144d36d2ab282e&skey=@crypt_b93ef9c0_3d36781bdd471e93df89b74ee29383b1
p2394
sVKeyWord
p2395
Vgh_
p2396
sVProvince
p2397
V\u4e0a\u6d77
p2398
sVPYInitial
p2399
VSQBFLS
p2400
sVRemarkName
p2401
g43
sVIsOwner
p2402
I0
sVSex
p2403
I0
sVStarFriend
p2404
I0
sVHideInputBarFlag
p2405
I0
sVChatRoomId
p2406
I0
sVEncryChatRoomId
p2407
g43
sVAttrStatus
p2408
I0
sVStatues
p2409
I0
stp2410
Rp2411
I1
bag25
(g2025
g30
(dp2412
VUserName
p2413
V@8f458ad6402234f07b17d5bf73fe815c
p2414
sVCity
p2415
V\u9102\u5c14\u591a\u65af
p2416
sVSnsFlag
p2417
I0
sVDisplayName
p2418
g43
sVUniFriend
p2419
I0
sVMemberCount
p2420
I0
sVOwnerUin
p2421
I0
sVMemberList
p2422
g41
sVAlias
p2423
g43
sVPYQuanPin
p2424
Vtiananchuanmei
p2425
sVSignature
p2426
V\u751f\u6d3b\u54a8\u8be2\uff0c\u4fbf\u6c11\u670d\u52a1\uff0c\u516c\u4ea4\u5e7f\u544a\u3001\u65b0\u95fb\u70ed\u70b9/\u8d44\u8baf
p2427
sVRemarkPYInitial
p2428
g43
sVContactFlag
p2429
I1
sVUin
p2430
I0
sVNickName
p2431
V\u5929\u5b89\u4f20\u5a92
p2432
sVAppAccountFlag
p2433
I0
sVVerifyFlag
p2434
I24
sVRemarkPYQuanPin
p2435
g43
sVHeadImgUrl
p2436
V/cgi-bin/mmwebwx-bin/webwxgeticon?seq=663843682&username=@8f458ad6402234f07b17d5bf73fe815c&skey=@crypt_b93ef9c0_3d36781bdd471e93df89b74ee29383b1
p2437
sVKeyWord
p2438
Vgh_
p2439
sVProvince
p2440
V\u5185\u8499\u53e4
p2441
sVPYInitial
p2442
VTACM
p2443
sVRemarkName
p2444
g43
sVIsOwner
p2445
I0
sVSex
p2446
I0
sVStarFriend
p2447
I0
sVHideInputBarFlag
p2448
I0
sVChatRoomId
p2449
I0
sVEncryChatRoomId
p2450
g43
sVAttrStatus
p2451
I0
sVStatues
p2452
I0
stp2453
Rp2454
I1
bag25
(g2025
g30
(dp2455
VUserName
p2456
V@f2062804349d95147ff99e1999820abd
p2457
sVCity
p2458
V\u623f\u5c71
p2459
sVSnsFlag
p2460
I0
sVDisplayName
p2461
g43
sVUniFriend
p2462
I0
sVMemberCount
p2463
I0
sVOwnerUin
p2464
I0
sVMemberList
p2465
g41
sVAlias
p2466
g43
sVPYQuanPin
p2467
Vdashujuqianyan
p2468
sVSignature
p2469
V\u4e00\u53ea\u7a0b\u5e8f<span class="emoji emoji1f412"></span>\u548c\u4e00\u53ea\u91d1\u878d<span class="emoji emoji1f436"></span>\u5199\u5b57\u7684\u5730\u65b9\uff0c\u6709\u5173\u4e8e\u7f16\u7a0b\uff0c\u91d1\u878d\uff0c\u6570\u636e\uff0c\u5b66\u4e60\uff0c\u5de5\u4f5c\uff0c\u751f\u6d3b\uff0c\u6709\u5173\u4e8e\u6211\uff0c\u4e5f\u6709\u5173\u4e8e\u4f60~
p2470
sVRemarkPYInitial
p2471
g43
sVContactFlag
p2472
I1
sVUin
p2473
I0
sVNickName
p2474
V\u5927\u6570\u636e\u524d\u6cbf
p2475
sVAppAccountFlag
p2476
I0
sVVerifyFlag
p2477
I8
sVRemarkPYQuanPin
p2478
g43
sVHeadImgUrl
p2479
V/cgi-bin/mmwebwx-bin/webwxgeticon?seq=665617461&username=@f2062804349d95147ff99e1999820abd&skey=@crypt_b93ef9c0_3d36781bdd471e93df89b74ee29383b1
p2480
sVKeyWord
p2481
Vgh_
p2482
sVProvince
p2483
V\u5317\u4eac
p2484
sVPYInitial
p2485
VDSJQY
p2486
sVRemarkName
p2487
g43
sVIsOwner
p2488
I0
sVSex
p2489
I0
sVStarFriend
p2490
I0
sVHideInputBarFlag
p2491
I0
sVChatRoomId
p2492
I0
sVEncryChatRoomId
p2493
g43
sVAttrStatus
p2494
I0
sVStatues
p2495
I0
stp2496
Rp2497
I1
bag25
(g2025
g30
(dp2498
VUserName
p2499
V@bfec3816826bc8a08973481dd5155253
p2500
sVCity
p2501
g43
sVSnsFlag
p2502
I0
sVDisplayName
p2503
g43
sVUniFriend
p2504
I0
sVMemberCount
p2505
I0
sVOwnerUin
p2506
I0
sVMemberList
p2507
g41
sVAlias
p2508
g43
sVPYQuanPin
p2509
Vstormzhang
p2510
sVSignature
p2511
V\u4e00\u540d\u4e0d\u7f81\u7684\u7801\u519c\uff0c\u6211\u7684\u4e16\u754c\u4e0d\u53ea\u6709 Coding\uff01
p2512
sVRemarkPYInitial
p2513
g43
sVContactFlag
p2514
I1
sVUin
p2515
I0
sVNickName
p2516
Vstormzhang
p2517
sVAppAccountFlag
p2518
I0
sVVerifyFlag
p2519
I8
sVRemarkPYQuanPin
p2520
g43
sVHeadImgUrl
p2521
V/cgi-bin/mmwebwx-bin/webwxgeticon?seq=665622103&username=@bfec3816826bc8a08973481dd5155253&skey=@crypt_b93ef9c0_3d36781bdd471e93df89b74ee29383b1
p2522
sVKeyWord
p2523
Vgh_
p2524
sVProvince
p2525
V\u4e0a\u6d77
p2526
sVPYInitial
p2527
VSTORMZHANG
p2528
sVRemarkName
p2529
g43
sVIsOwner
p2530
I0
sVSex
p2531
I0
sVStarFriend
p2532
I0
sVHideInputBarFlag
p2533
I0
sVChatRoomId
p2534
I0
sVEncryChatRoomId
p2535
g43
sVAttrStatus
p2536
I0
sVStatues
p2537
I0
stp2538
Rp2539
I1
bag25
(g2025
g30
(dp2540
VUserName
p2541
V@acf1251fdfc387cee40bcba07211a1c0
p2542
sVCity
p2543
V\u5357\u4eac
p2544
sVSnsFlag
p2545
I0
sVDisplayName
p2546
g43
sVUniFriend
p2547
I0
sVMemberCount
p2548
I0
sVOwnerUin
p2549
I0
sVMemberList
p2550
g41
sVAlias
p2551
g43
sVPYQuanPin
p2552
Vyigechengxuyuanderichang
p2553
sVSignature
p2554
V\u7528\u7a0b\u5e8f\u5458\u7684\u65b9\u5f0f\u770b\u4e16\u754c\u3002
p2555
sVRemarkPYInitial
p2556
g43
sVContactFlag
p2557
I1
sVUin
p2558
I0
sVNickName
p2559
V\u4e00\u4e2a\u7a0b\u5e8f\u5458\u7684\u65e5\u5e38
p2560
sVAppAccountFlag
p2561
I0
sVVerifyFlag
p2562
I8
sVRemarkPYQuanPin
p2563
g43
sVHeadImgUrl
p2564
V/cgi-bin/mmwebwx-bin/webwxgeticon?seq=663847349&username=@acf1251fdfc387cee40bcba07211a1c0&skey=@crypt_b93ef9c0_3d36781bdd471e93df89b74ee29383b1
p2565
sVKeyWord
p2566
Vgh_
p2567
sVProvince
p2568
V\u6c5f\u82cf
p2569
sVPYInitial
p2570
VYGCXYDRC
p2571
sVRemarkName
p2572
g43
sVIsOwner
p2573
I0
sVSex
p2574
I0
sVStarFriend
p2575
I0
sVHideInputBarFlag
p2576
I0
sVChatRoomId
p2577
I0
sVEncryChatRoomId
p2578
g43
sVAttrStatus
p2579
I0
sVStatues
p2580
I0
stp2581
Rp2582
I1
bag25
(g2025
g30
(dp2583
VUserName
p2584
V@7fb1e17da1b14a821773231d95de94b3
p2585
sVCity
p2586
V\u6d77\u6dc0
p2587
sVSnsFlag
p2588
I0
sVDisplayName
p2589
g43
sVUniFriend
p2590
I0
sVMemberCount
p2591
I0
sVOwnerUin
p2592
I0
sVMemberList
p2593
g41
sVAlias
p2594
g43
sVPYQuanPin
p2595
Vweiruanxiaoying
p2596
sVSignature
p2597
V\u5fae\u8f6f\u5c0f\u82f1\u662f\u5fae\u8f6f\u4e9a\u6d32\u7814\u7a76\u9662\u5f00\u53d1\u7684\u514d\u8d39\u7684\u82f1\u8bed\u5b66\u4e60\u516c\u4f17\u53f7\uff0c\u5305\u62ec\u82f1\u8bed\u53e3\u8bed\u548c\u8bcd\u6c47\u7684\u4e13\u9879\u8bad\u7ec3\uff0c\u4ee5\u53ca\u4e2d\u82f1\u7ffb\u8bd1\u7b49\u591a\u79cd\u529f\u80fd\uff0c\u76ee\u524d\u4e3aBeta\u7248\u672c\u3002\u5e0c\u671b\u5c0f\u82f1\u80fd\u6210\u4e3a\u4f60\u7684\u826f\u5e08\u76ca\u53cb\uff0c\u966a\u4f60\u4e00\u8d77\u628a\u82f1\u8bed\u5b66\u5f97\u68d2\u68d2\u54d2\uff01
p2598
sVRemarkPYInitial
p2599
g43
sVContactFlag
p2600
I1
sVUin
p2601
I0
sVNickName
p2602
V\u5fae\u8f6f\u5c0f\u82f1
p2603
sVAppAccountFlag
p2604
I0
sVVerifyFlag
p2605
I24
sVRemarkPYQuanPin
p2606
g43
sVHeadImgUrl
p2607
V/cgi-bin/mmwebwx-bin/webwxgeticon?seq=667601145&username=@7fb1e17da1b14a821773231d95de94b3&skey=@crypt_b93ef9c0_3d36781bdd471e93df89b74ee29383b1
p2608
sVKeyWord
p2609
Vgh_
p2610
sVProvince
p2611
V\u5317\u4eac
p2612
sVPYInitial
p2613
VWRXY
p2614
sVRemarkName
p2615
g43
sVIsOwner
p2616
I0
sVSex
p2617
I0
sVStarFriend
p2618
I0
sVHideInputBarFlag
p2619
I0
sVChatRoomId
p2620
I0
sVEncryChatRoomId
p2621
g43
sVAttrStatus
p2622
I0
sVStatues
p2623
I0
stp2624
Rp2625
I1
bag25
(g2025
g30
(dp2626
VUserName
p2627
V@8bace10eb19e36b26055c75109663bf6
p2628
sVCity
p2629
V\u6c88\u9633
p2630
sVSnsFlag
p2631
I0
sVDisplayName
p2632
g43
sVUniFriend
p2633
I0
sVMemberCount
p2634
I0
sVOwnerUin
p2635
I0
sVMemberList
p2636
g41
sVAlias
p2637
g43
sVPYQuanPin
p2638
V12369huanbaojubao
p2639
sVSignature
p2640
V12369\u73af\u4fdd\u4e3e\u62a5\uff0c\u4e3b\u8981\u53d7\u7406\u516c\u4f17\u5bf9\u73af\u5883\u6c61\u67d3\u95ee\u9898\u7684\u4e3e\u62a5\u3002\u53d7\u7406\u7684\u4e3e\u62a5\u4e8b\u9879\u4ea4\u7531\u5c5e\u5730\u73af\u5883\u4fdd\u62a4\u4e3b\u7ba1\u90e8\u95e8\u5904\u7406\u3002
p2641
sVRemarkPYInitial
p2642
g43
sVContactFlag
p2643
I1
sVUin
p2644
I0
sVNickName
p2645
V12369\u73af\u4fdd\u4e3e\u62a5
p2646
sVAppAccountFlag
p2647
I0
sVVerifyFlag
p2648
I24
sVRemarkPYQuanPin
p2649
g43
sVHeadImgUrl
p2650
V/cgi-bin/mmwebwx-bin/webwxgeticon?seq=667601159&username=@8bace10eb19e36b26055c75109663bf6&skey=@crypt_b93ef9c0_3d36781bdd471e93df89b74ee29383b1
p2651
sVKeyWord
p2652
Vgh_
p2653
sVProvince
p2654
V\u8fbd\u5b81
p2655
sVPYInitial
p2656
V12369HBJB
p2657
sVRemarkName
p2658
g43
sVIsOwner
p2659
I0
sVSex
p2660
I0
sVStarFriend
p2661
I0
sVHideInputBarFlag
p2662
I0
sVChatRoomId
p2663
I0
sVEncryChatRoomId
p2664
g43
sVAttrStatus
p2665
I0
sVStatues
p2666
I0
stp2667
Rp2668
I1
bag25
(g2025
g30
(dp2669
VUserName
p2670
V@bb1e76f610e314b2b277647da2ad22b6
p2671
sVCity
p2672
V\u6d66\u4e1c\u65b0\u533a
p2673
sVSnsFlag
p2674
I0
sVDisplayName
p2675
g43
sVUniFriend
p2676
I0
sVMemberCount
p2677
I0
sVOwnerUin
p2678
I0
sVMemberList
p2679
g41
sVAlias
p2680
g43
sVPYQuanPin
p2681
VwojiuBBzenmele
p2682
sVSignature
p2683
Vyou can you up, no can no bb.
p2684
sVRemarkPYInitial
p2685
g43
sVContactFlag
p2686
I1
sVUin
p2687
I0
sVNickName
p2688
V\u6211\u5c31BB\u600e\u4e48\u4e86
p2689
sVAppAccountFlag
p2690
I0
sVVerifyFlag
p2691
I8
sVRemarkPYQuanPin
p2692
g43
sVHeadImgUrl
p2693
V/cgi-bin/mmwebwx-bin/webwxgeticon?seq=667601198&username=@bb1e76f610e314b2b277647da2ad22b6&skey=@crypt_b93ef9c0_3d36781bdd471e93df89b74ee29383b1
p2694
sVKeyWord
p2695
Vgh_
p2696
sVProvince
p2697
V\u4e0a\u6d77
p2698
sVPYInitial
p2699
VWJBBZML
p2700
sVRemarkName
p2701
g43
sVIsOwner
p2702
I0
sVSex
p2703
I0
sVStarFriend
p2704
I0
sVHideInputBarFlag
p2705
I0
sVChatRoomId
p2706
I0
sVEncryChatRoomId
p2707
g43
sVAttrStatus
p2708
I0
sVStatues
p2709
I0
stp2710
Rp2711
I1
bag25
(g2025
g30
(dp2712
VUserName
p2713
V@12ac03e08ed003835d5a124c679c34c7
p2714
sVCity
p2715
V\u6d77\u6dc0
p2716
sVSnsFlag
p2717
I0
sVDisplayName
p2718
g43
sVUniFriend
p2719
I0
sVMemberCount
p2720
I0
sVOwnerUin
p2721
I0
sVMemberList
p2722
g41
sVAlias
p2723
g43
sVPYQuanPin
p2724
Vgaoxiaolvgongjusouluo
p2725
sVSignature
p2726
V\u5206\u4eab\u597d\u73a9\u6709\u8da3\u7684App \u548c\u9ad8\u6548\u7387\u5de5\u5177\u3002 \u6211\u5df2\u52a0\u5165\u201c\u7ef4\u6743\u9a91\u58eb\u201d(rightknights.com)\u7684\u7248\u6743\u4fdd\u62a4\u8ba1\u5212\u3002
p2727
sVRemarkPYInitial
p2728
g43
sVContactFlag
p2729
I1
sVUin
p2730
I0
sVNickName
p2731
V\u9ad8\u6548\u7387\u5de5\u5177\u641c\u7f57
p2732
sVAppAccountFlag
p2733
I0
sVVerifyFlag
p2734
I8
sVRemarkPYQuanPin
p2735
g43
sVHeadImgUrl
p2736
V/cgi-bin/mmwebwx-bin/webwxgeticon?seq=667602473&username=@12ac03e08ed003835d5a124c679c34c7&skey=@crypt_b93ef9c0_3d36781bdd471e93df89b74ee29383b1
p2737
sVKeyWord
p2738
Vgh_
p2739
sVProvince
p2740
V\u5317\u4eac
p2741
sVPYInitial
p2742
VGXLGJSL
p2743
sVRemarkName
p2744
g43
sVIsOwner
p2745
I0
sVSex
p2746
I0
sVStarFriend
p2747
I0
sVHideInputBarFlag
p2748
I0
sVChatRoomId
p2749
I0
sVEncryChatRoomId
p2750
g43
sVAttrStatus
p2751
I0
sVStatues
p2752
I0
stp2753
Rp2754
I1
bag25
(g2025
g30
(dp2755
VUserName
p2756
V@2a31fb979517e58af8ff0ebd6d75272a
p2757
sVCity
p2758
V\u4f73\u6728\u65af
p2759
sVSnsFlag
p2760
I0
sVDisplayName
p2761
g43
sVUniFriend
p2762
I0
sVMemberCount
p2763
I0
sVOwnerUin
p2764
I0
sVMemberList
p2765
g41
sVAlias
p2766
g43
sVPYQuanPin
p2767
Vdianying
p2768
sVSignature
p2769
V\u70ed\u95e8\u7535\u5f71\u7535\u89c6\u5267 \u7535\u5f71\u9662\u70ed\u6620\u5f71\u89c6\u5267\uff0c\u514d\u8d39\u5728\u7ebf\u770b\u7535\u5f71\uff0c\u6d41\u884c\u7535\u5f71\u7535\u89c6\u5267\uff0c\u6b27\u7f8e\u5927\u7247\uff0c\u9662\u7ebf\u540c\u6b65\u7535\u5f71\uff0c\u5c0f\u7535\u5f71 \u5fae\u7535\u5f71 \u5168\u7f51\u7535\u5f71\u90fd\u6709\uff0c\u70b9\u51fb\u83dc\u5355\u680f\u5373\u53ef\u89c2\u770b
p2770
sVRemarkPYInitial
p2771
g43
sVContactFlag
p2772
I1
sVUin
p2773
I0
sVNickName
p2774
V\u7535\u5f71
p2775
sVAppAccountFlag
p2776
I0
sVVerifyFlag
p2777
I24
sVRemarkPYQuanPin
p2778
g43
sVHeadImgUrl
p2779
V/cgi-bin/mmwebwx-bin/webwxgeticon?seq=649995092&username=@2a31fb979517e58af8ff0ebd6d75272a&skey=@crypt_b93ef9c0_3d36781bdd471e93df89b74ee29383b1
p2780
sVKeyWord
p2781
Vgh_
p2782
sVProvince
p2783
V\u9ed1\u9f99\u6c5f
p2784
sVPYInitial
p2785
VDY
p2786
sVRemarkName
p2787
g43
sVIsOwner
p2788
I0
sVSex
p2789
I0
sVStarFriend
p2790
I0
sVHideInputBarFlag
p2791
I0
sVChatRoomId
p2792
I0
sVEncryChatRoomId
p2793
g43
sVAttrStatus
p2794
I0
sVStatues
p2795
I0
stp2796
Rp2797
I1
bag25
(g2025
g30
(dp2798
VUserName
p2799
V@24475108557dac35c5388c8f69d54345
p2800
sVCity
p2801
V\u6b66\u6c49
p2802
sVSnsFlag
p2803
I0
sVDisplayName
p2804
g43
sVUniFriend
p2805
I0
sVMemberCount
p2806
I0
sVOwnerUin
p2807
I0
sVMemberList
p2808
g41
sVAlias
p2809
g43
sVPYQuanPin
p2810
Vwuhandaxuetushuguan
p2811
sVSignature
p2812
V\u201c\u5916\u4e8b\u95ee\u767e\u5ea6\uff0c\u5185\u4e8b\u95ee\u5c0f\u5e03\u201d\u3002\u5c0f\u5e03\u4f1a\u5728\u8fd9\u513f\u5411\u5927\u5bb6\u53ca\u65f6\u63a8\u9001\u5173\u4e8e\u6b66\u6c49\u5927\u5b66\u56fe\u4e66\u9986\u7684\u6700\u65b0\u8d44\u8baf\u3002\u56de\u590d\u201c\u5e2e\u52a9\u201d\u6216\u8005"help"\u53ef\u4ee5\u81ea\u52a9\u67e5\u8be2\u70ed\u95e8\u95ee\u9898\u3002
p2813
sVRemarkPYInitial
p2814
g43
sVContactFlag
p2815
I1
sVUin
p2816
I0
sVNickName
p2817
V\u6b66\u6c49\u5927\u5b66\u56fe\u4e66\u9986
p2818
sVAppAccountFlag
p2819
I0
sVVerifyFlag
p2820
I24
sVRemarkPYQuanPin
p2821
g43
sVHeadImgUrl
p2822
V/cgi-bin/mmwebwx-bin/webwxgeticon?seq=667605386&username=@24475108557dac35c5388c8f69d54345&skey=@crypt_b93ef9c0_3d36781bdd471e93df89b74ee29383b1
p2823
sVKeyWord
p2824
Vgh_
p2825
sVProvince
p2826
V\u6e56\u5317
p2827
sVPYInitial
p2828
VWHDXTSG
p2829
sVRemarkName
p2830
g43
sVIsOwner
p2831
I0
sVSex
p2832
I0
sVStarFriend
p2833
I0
sVHideInputBarFlag
p2834
I0
sVChatRoomId
p2835
I0
sVEncryChatRoomId
p2836
g43
sVAttrStatus
p2837
I0
sVStatues
p2838
I0
stp2839
Rp2840
I1
batp2841
Rp2842
I1
bssS'loginInfo'
p2843
(dp2844
S'SyncKey'
p2845
(dp2846
VCount
p2847
I4
sVList
p2848
(lp2849
(dp2850
VVal
p2851
I667605385
sVKey
p2852
I1
sa(dp2853
VVal
p2854
I667605475
sVKey
p2855
I2
sa(dp2856
VVal
p2857
I667605388
sVKey
p2858
I3
sa(dp2859
VVal
p2860
I1525907162
sVKey
p2861
I1000
sassS'syncUrl'
p2862
S'https://webpush.wx.qq.com/cgi-bin/mmwebwx-bin'
p2863
sS'skey'
p2864
V@crypt_b93ef9c0_3d36781bdd471e93df89b74ee29383b1
p2865
sS'wxuin'
p2866
V2969247815
p2867
sS'synckey'
p2868
S'1_667605385|2_667605475|3_667605388|1000_1525907162'
p2869
sS'url'
p2870
Vhttps://wx.qq.com/cgi-bin/mmwebwx-bin
p2871
sS'pass_ticket'
p2872
V0rchI69SjJs4wEaAoZh6NRZsaW3D2YburQzIx7EaRHouDhk97UOEbaLugk6xfRLz
p2873
sS'wxsid'
p2874
VMvwilFM0Rh+RrwB5
p2875
sS'InviteStartCount'
p2876
I40
sS'deviceid'
p2877
S'e424020777575741'
p2878
sS'fileUrl'
p2879
S'https://file.wx.qq.com/cgi-bin/mmwebwx-bin'
p2880
sS'BaseRequest'
p2881
(dp2882
g45
g2867
sS'Skey'
p2883
g2865
sS'DeviceID'
p2884
g2873
sS'Sid'
p2885
g2875
ssS'User'
p2886
g25
(g29
g30
(dp2887
g32
g22
sg33
g34
sg35
g34
sg36
I0
sg38
g41
sg42
g43
sg44
g43
sg69
I1
sg46
I0
sg47
I0
sg48
g34
sg49
g34
sg50
g43
sg51
g43
sg52
I0
sg53
I0
sg54
I1
sg55
g34
sg56
I0
sg59
I0
sg57
I17
sg58
I0
sg37
I0
sg60
g34
sg61
g62
sg63
I0
sg64
g65
sg66
g43
sg67
g68
sg45
L2969247815L
sg70
I0
sg71
I0
stp2888
Rp2889
I1
bss.